
LCD_TEST.elf:     file format elf32-avr

Sections:
Idx Name          Size      VMA       LMA       File off  Algn
  0 .text         000020ee  00000000  00000000  00000094  2**1
                  CONTENTS, ALLOC, LOAD, READONLY, CODE
  1 .data         00000006  00800060  000020ee  00002182  2**0
                  CONTENTS, ALLOC, LOAD, DATA
  2 .bss          0000000a  00800066  00800066  00002188  2**0
                  ALLOC

Disassembly of section .text:

00000000 <__vectors>:
       0:	0c 94 a2 07 	jmp	0xf44	; 0xf44 <__ctors_end>
       4:	0c 94 bf 07 	jmp	0xf7e	; 0xf7e <__bad_interrupt>
       8:	0c 94 bf 07 	jmp	0xf7e	; 0xf7e <__bad_interrupt>
       c:	0c 94 bf 07 	jmp	0xf7e	; 0xf7e <__bad_interrupt>
      10:	0c 94 bf 07 	jmp	0xf7e	; 0xf7e <__bad_interrupt>
      14:	0c 94 bf 07 	jmp	0xf7e	; 0xf7e <__bad_interrupt>
      18:	0c 94 bf 07 	jmp	0xf7e	; 0xf7e <__bad_interrupt>
      1c:	0c 94 bf 07 	jmp	0xf7e	; 0xf7e <__bad_interrupt>
      20:	0c 94 bf 07 	jmp	0xf7e	; 0xf7e <__bad_interrupt>
      24:	0c 94 bf 07 	jmp	0xf7e	; 0xf7e <__bad_interrupt>
      28:	0c 94 bf 07 	jmp	0xf7e	; 0xf7e <__bad_interrupt>
      2c:	0c 94 bf 07 	jmp	0xf7e	; 0xf7e <__bad_interrupt>
      30:	0c 94 bf 07 	jmp	0xf7e	; 0xf7e <__bad_interrupt>
      34:	0c 94 bf 07 	jmp	0xf7e	; 0xf7e <__bad_interrupt>
      38:	0c 94 bf 07 	jmp	0xf7e	; 0xf7e <__bad_interrupt>
      3c:	0c 94 bf 07 	jmp	0xf7e	; 0xf7e <__bad_interrupt>
      40:	0c 94 bf 07 	jmp	0xf7e	; 0xf7e <__bad_interrupt>
      44:	0c 94 bf 07 	jmp	0xf7e	; 0xf7e <__bad_interrupt>
      48:	0c 94 bf 07 	jmp	0xf7e	; 0xf7e <__bad_interrupt>
      4c:	0c 94 bf 07 	jmp	0xf7e	; 0xf7e <__bad_interrupt>
      50:	0c 94 bf 07 	jmp	0xf7e	; 0xf7e <__bad_interrupt>

00000054 <FONT_8x8>:
	...
      5c:	30 78 78 30 30 00 30 00 6c 6c 6c 00 00 00 00 00     0xx00.0.lll.....
      6c:	6c 6c fe 6c fe 6c 6c 00 18 3e 60 3c 06 7c 18 00     ll.l.ll..>`<.|..
      7c:	00 63 66 0c 18 33 63 00 1c 36 1c 3b 6e 66 3b 00     .cf..3c..6.;nf;.
      8c:	30 30 60 00 00 00 00 00 0c 18 30 30 30 18 0c 00     00`.......000...
      9c:	30 18 0c 0c 0c 18 30 00 00 66 3c ff 3c 66 00 00     0.....0..f<.<f..
      ac:	00 30 30 fc 30 30 00 00 00 00 00 00 00 18 18 30     .00.00.........0
      bc:	00 00 00 7e 00 00 00 00 00 00 00 00 00 18 18 00     ...~............
      cc:	03 06 0c 18 30 60 40 00 3e 63 63 6b 63 63 3e 00     ....0`@.>cckcc>.
      dc:	18 38 58 18 18 18 7e 00 3c 66 06 1c 30 66 7e 00     .8X...~.<f..0f~.
      ec:	3c 66 06 1c 06 66 3c 00 0e 1e 36 66 7f 06 0f 00     <f...f<...6f....
      fc:	7e 60 7c 06 06 66 3c 00 1c 30 60 7c 66 66 3c 00     ~`|..f<..0`|ff<.
     10c:	7e 66 06 0c 18 18 18 00 3c 66 66 3c 66 66 3c 00     ~f......<ff<ff<.
     11c:	3c 66 66 3e 06 0c 38 00 00 18 18 00 00 18 18 00     <ff>..8.........
     12c:	00 18 18 00 00 18 18 30 0c 18 30 60 30 18 0c 00     .......0..0`0...
     13c:	00 00 7e 00 00 7e 00 00 30 18 0c 06 0c 18 30 00     ..~..~..0.....0.
     14c:	3c 66 06 0c 18 00 18 00 3e 63 6f 69 6f 60 3e 00     <f......>coio`>.
     15c:	18 3c 66 66 7e 66 66 00 7e 33 33 3e 33 33 7e 00     .<ff~ff.~33>33~.
     16c:	1e 33 60 60 60 33 1e 00 7c 36 33 33 33 36 7c 00     .3```3..|63336|.
     17c:	7f 31 34 3c 34 31 7f 00 7f 31 34 3c 34 30 78 00     .14<41...14<40x.
     18c:	1e 33 60 60 67 33 1f 00 66 66 66 7e 66 66 66 00     .3``g3..fff~fff.
     19c:	3c 18 18 18 18 18 3c 00 0f 06 06 06 66 66 3c 00     <.....<.....ff<.
     1ac:	73 33 36 3c 36 33 73 00 78 30 30 30 31 33 7f 00     s36<63s.x00013..
     1bc:	63 77 7f 7f 6b 63 63 00 63 73 7b 6f 67 63 63 00     cw..kcc.cs{ogcc.
     1cc:	3e 63 63 63 63 63 3e 00 7e 33 33 3e 30 30 78 00     >ccccc>.~33>00x.
     1dc:	3c 66 66 66 6e 3c 0e 00 7e 33 33 3e 36 33 73 00     <fffn<..~33>63s.
     1ec:	3c 66 30 18 0c 66 3c 00 7e 5a 18 18 18 18 3c 00     <f0..f<.~Z....<.
     1fc:	66 66 66 66 66 66 7e 00 66 66 66 66 66 3c 18 00     ffffff~.fffff<..
     20c:	63 63 63 6b 7f 77 63 00 63 63 36 1c 1c 36 63 00     ccck.wc.cc6..6c.
     21c:	66 66 66 3c 18 18 3c 00 7f 63 46 0c 19 33 7f 00     fff<..<..cF..3..
     22c:	3c 30 30 30 30 30 3c 00 60 30 18 0c 06 03 01 00     <00000<.`0......
     23c:	3c 0c 0c 0c 0c 0c 3c 00 08 1c 36 63 00 00 00 00     <.....<...6c....
     24c:	00 00 00 00 00 00 00 ff 18 18 0c 00 00 00 00 00     ................
     25c:	00 00 3c 06 3e 66 3b 00 70 30 3e 33 33 33 6e 00     ..<.>f;.p0>333n.
     26c:	00 00 3c 66 60 66 3c 00 0e 06 3e 66 66 66 3b 00     ..<f`f<...>fff;.
     27c:	00 00 3c 66 7e 60 3c 00 1c 36 30 78 30 30 78 00     ..<f~`<..60x00x.
     28c:	00 00 3b 66 66 3e 06 7c 70 30 36 3b 33 33 73 00     ..;ff>.|p06;33s.
     29c:	18 00 38 18 18 18 3c 00 06 00 06 06 06 66 66 3c     ..8...<......ff<
     2ac:	70 30 33 36 3c 36 73 00 38 18 18 18 18 18 3c 00     p036<6s.8.....<.
     2bc:	00 00 66 7f 7f 6b 63 00 00 00 7c 66 66 66 66 00     ..f..kc...|ffff.
     2cc:	00 00 3c 66 66 66 3c 00 00 00 6e 33 33 3e 30 78     ..<fff<...n33>0x
     2dc:	00 00 3b 66 66 3e 06 0f 00 00 6e 3b 33 30 78 00     ..;ff>....n;30x.
     2ec:	00 00 3e 60 3c 06 7c 00 08 18 3e 18 18 1a 0c 00     ..>`<.|...>.....
     2fc:	00 00 66 66 66 66 3b 00 00 00 66 66 66 3c 18 00     ..ffff;...fff<..
     30c:	00 00 63 6b 7f 7f 36 00 00 00 63 36 1c 36 63 00     ..ck..6...c6.6c.
     31c:	00 00 66 66 66 3e 06 7c 00 00 7e 4c 18 32 7e 00     ..fff>.|..~L.2~.
     32c:	0e 18 18 70 18 18 0e 00 0c 0c 0c 00 0c 0c 0c 00     ...p............
     33c:	70 18 18 0e 18 18 70 00 3b 6e 00 00 00 00 00 00     p.....p.;n......
     34c:	1c 36 36 1c 00 00 00 00 60 90 90 60 00 00 00 00     .66.....`..`....
     35c:	22 77 7f 7f 3e 1c 08 00                             "w..>...

00000364 <FONT_16x16>:
	...
     388:	07 00 0f 80 0f 80 0f 80 0f 80 0f 80 07 00 07 00     ................
     398:	00 00 00 00 07 00 07 00 07 00 00 00 00 00 0e 38     ...............8
     3a8:	0e 38 0e 38 0e 38 06 30 00 00 00 00 00 00 00 00     .8.8.8.0........
	...
     3c4:	00 00 0c 30 0c 30 0c 30 7f fe 7f fe 0c 30 0c 30     ...0.0.0.....0.0
     3d4:	0c 30 0c 30 7f fe 7f fe 0c 30 0c 30 0c 30 00 00     .0.0.....0.0.0..
     3e4:	00 00 02 40 02 40 0f f8 1f f8 1a 40 1a 40 1f f0     ...@.@.....@.@..
     3f4:	0f f8 02 58 02 58 1f f8 1f f0 02 40 02 40 00 00     ...X.X.....@.@..
     404:	00 00 00 00 00 00 0e 10 0e 30 0e 70 00 e0 01 c0     .........0.p....
     414:	03 80 07 00 0e 70 0c 70 08 70 00 00 00 00 00 00     .....p.p.p......
     424:	00 00 00 00 0f 00 19 80 19 80 19 80 0f 00 0f 08     ................
     434:	0f 98 19 f8 18 f0 18 e0 19 f0 0f 98 00 00 00 00     ................
     444:	00 00 00 00 07 00 07 00 07 00 0e 00 00 00 00 00     ................
	...
     468:	00 f0 01 c0 03 80 07 00 0e 00 0e 00 0e 00 0e 00     ................
     478:	07 00 03 80 01 c0 00 f0 00 00 00 00 00 00 00 00     ................
     488:	0f 00 03 80 01 c0 00 e0 00 70 00 70 00 70 00 70     .........p.p.p.p
     498:	00 e0 01 c0 03 80 0f 00 00 00 00 00 00 00 00 00     ................
     4a8:	01 80 11 88 09 90 07 e0 07 e0 3f fc 3f fc 07 e0     ..........?.?...
     4b8:	07 e0 09 90 11 88 01 80 00 00 00 00 00 00 00 00     ................
     4c8:	00 00 00 00 01 80 01 80 01 80 0f f0 0f f0 01 80     ................
     4d8:	01 80 01 80 00 00 00 00 00 00 00 00 00 00 00 00     ................
	...
     4f8:	00 00 07 00 07 00 07 00 0e 00 00 00 00 00 00 00     ................
	...
     510:	00 00 1f f8 1f f8 00 00 00 00 00 00 00 00 00 00     ................
	...
     538:	00 00 07 00 07 00 07 00 00 00 00 00 00 00 00 00     ................
     548:	00 02 00 06 00 0e 00 1c 00 38 00 70 00 e0 01 c0     .........8.p....
     558:	03 80 07 00 0e 00 1c 00 00 00 00 00 00 00 00 00     ................
     568:	0f f0 1c 38 1c 78 1c f8 1c f8 1d b8 1d b8 1f 38     ...8.x.........8
     578:	1f 38 1e 38 1c 38 0f f0 00 00 00 00 00 00 00 00     .8.8.8..........
     588:	01 80 01 80 03 80 1f 80 1f 80 03 80 03 80 03 80     ................
     598:	03 80 03 80 03 80 1f f0 00 00 00 00 00 00 00 00     ................
     5a8:	0f e0 1c 70 1c 38 00 38 00 70 00 e0 01 c0 03 80     ...p.8.8.p......
     5b8:	07 00 0e 38 1c 38 1f f8 00 00 00 00 00 00 00 00     ...8.8..........
     5c8:	0f e0 1c 70 1c 38 00 38 00 70 03 c0 03 c0 00 70     ...p.8.8.p.....p
     5d8:	00 38 1c 38 1c 70 0f e0 00 00 00 00 00 00 00 00     .8.8.p..........
     5e8:	00 e0 01 e0 03 e0 06 e0 0c e0 18 e0 1f f8 1f f8     ................
     5f8:	00 e0 00 e0 00 e0 03 f8 00 00 00 00 00 00 00 00     ................
     608:	1f f8 1c 00 1c 00 1c 00 1c 00 1f e0 1f f0 00 78     ...............x
     618:	00 38 1c 38 1c 70 0f e0 00 00 00 00 00 00 00 00     .8.8.p..........
     628:	03 e0 07 00 0e 00 1c 00 1c 00 1f f0 1f f8 1c 38     ...............8
     638:	1c 38 1c 38 1c 38 0f f0 00 00 00 00 00 00 00 00     .8.8.8..........
     648:	1f fc 1c 1c 1c 1c 1c 1c 00 1c 00 38 00 70 00 e0     ...........8.p..
     658:	01 c0 03 80 03 80 03 80 00 00 00 00 00 00 00 00     ................
     668:	0f f0 1c 38 1c 38 1c 38 1f 38 07 e0 07 e0 1c f8     ...8.8.8.8......
     678:	1c 38 1c 38 1c 38 0f f0 00 00 00 00 00 00 00 00     .8.8.8..........
     688:	0f f0 1c 38 1c 38 1c 38 1c 38 1f f8 0f f8 00 38     ...8.8.8.8.....8
     698:	00 38 00 70 00 e0 07 c0 00 00 00 00 00 00 00 00     .8.p............
     6a8:	00 00 00 00 03 80 03 80 03 80 00 00 00 00 03 80     ................
     6b8:	03 80 03 80 00 00 00 00 00 00 00 00 00 00 00 00     ................
     6c8:	00 00 00 00 03 80 03 80 03 80 00 00 00 00 03 80     ................
     6d8:	03 80 03 80 07 00 00 00 00 00 00 00 00 00 00 70     ...............p
     6e8:	00 e0 01 c0 03 80 07 00 0e 00 1c 00 1c 00 0e 00     ................
     6f8:	07 00 03 80 01 c0 00 e0 00 70 00 00 00 00 00 00     .........p......
     708:	00 00 00 00 00 00 3f fc 3f fc 00 00 00 00 3f fc     ......?.?.....?.
     718:	3f fc 00 00 00 00 00 00 00 00 00 00 00 00 1c 00     ?...............
     728:	0e 00 07 00 03 80 01 c0 00 e0 00 70 00 70 00 e0     ...........p.p..
     738:	01 c0 03 80 07 00 0e 00 1c 00 00 00 00 00 03 c0     ................
     748:	0f f0 1e 78 18 38 00 38 00 70 00 e0 01 c0 01 c0     ...x.8.8.p......
     758:	00 00 00 00 01 c0 01 c0 01 c0 00 00 00 00 0f f8     ................
     768:	1c 1c 1c 1c 1c 1c 1c 1c 1c fc 1c fc 1c fc 1c fc     ................
     778:	1c 00 1c 00 1c 00 1f f0 07 f8 00 00 00 00 00 00     ................
     788:	03 c0 07 e0 0e 70 1c 38 1c 38 1c 38 1c 38 1f f8     .....p.8.8.8.8..
     798:	1c 38 1c 38 1c 38 1c 38 00 00 00 00 00 00 00 00     .8.8.8.8........
     7a8:	1f f0 0e 38 0e 38 0e 38 0e 38 0f f0 0f f0 0e 38     ...8.8.8.8.....8
     7b8:	0e 38 0e 38 0e 38 1f f0 00 00 00 00 00 00 00 00     .8.8.8..........
     7c8:	07 f0 0e 38 1c 38 1c 00 1c 00 1c 00 1c 00 1c 00     ...8.8..........
     7d8:	1c 00 1c 38 0e 38 07 f0 00 00 00 00 00 00 00 00     ...8.8..........
     7e8:	1f e0 0e 70 0e 38 0e 38 0e 38 0e 38 0e 38 0e 38     ...p.8.8.8.8.8.8
     7f8:	0e 38 0e 38 0e 70 1f e0 00 00 00 00 00 00 00 00     .8.8.p..........
     808:	1f f8 0e 18 0e 08 0e 00 0e 30 0f f0 0f f0 0e 30     .........0.....0
     818:	0e 00 0e 08 0e 18 1f f8 00 00 00 00 00 00 00 00     ................
     828:	1f f8 0e 18 0e 08 0e 00 0e 30 0f f0 0f f0 0e 30     .........0.....0
     838:	0e 00 0e 00 0e 00 1f 00 00 00 00 00 00 00 00 00     ................
     848:	07 f0 0e 38 1c 38 1c 38 1c 00 1c 00 1c 00 1c f8     ...8.8.8........
     858:	1c 38 1c 38 0e 38 07 f8 00 00 00 00 00 00 00 00     .8.8.8..........
     868:	1c 70 1c 70 1c 70 1c 70 1c 70 1f f0 1f f0 1c 70     .p.p.p.p.p.....p
     878:	1c 70 1c 70 1c 70 1c 70 00 00 00 00 00 00 00 00     .p.p.p.p........
     888:	0f e0 03 80 03 80 03 80 03 80 03 80 03 80 03 80     ................
     898:	03 80 03 80 03 80 0f e0 00 00 00 00 00 00 00 00     ................
     8a8:	01 fc 00 70 00 70 00 70 00 70 00 70 00 70 38 70     ...p.p.p.p.p.p8p
     8b8:	38 70 38 70 38 70 0f e0 00 00 00 00 00 00 00 00     8p8p8p..........
     8c8:	1e 38 0e 38 0e 70 0e e0 0f c0 0f 80 0f 80 0f c0     .8.8.p..........
     8d8:	0e e0 0e 70 0e 38 1e 38 00 00 00 00 00 00 00 00     ...p.8.8........
     8e8:	1f 00 0e 00 0e 00 0e 00 0e 00 0e 00 0e 00 0e 00     ................
     8f8:	0e 08 0e 18 0e 38 1f f8 00 00 00 00 00 00 00 00     .....8..........
     908:	1c 1c 1e 3c 1f 7c 1f fc 1f fc 1d dc 1c 9c 1c 1c     ...<.|..........
     918:	1c 1c 1c 1c 1c 1c 1c 1c 00 00 00 00 00 00 00 00     ................
     928:	1c 1c 1c 1c 1e 1c 1f 1c 1f 9c 1d dc 1c fc 1c 7c     ...............|
     938:	1c 3c 1c 1c 1c 1c 1c 1c 00 00 00 00 00 00 00 00     .<..............
     948:	03 e0 07 f0 0e 38 1c 1c 1c 1c 1c 1c 1c 1c 1c 1c     .....8..........
     958:	1c 1c 0e 38 07 f0 03 e0 00 00 00 00 00 00 00 00     ...8............
     968:	1f f0 0e 38 0e 38 0e 38 0e 38 0f f0 0f f0 0e 00     ...8.8.8.8......
     978:	0e 00 0e 00 0e 00 1f 00 00 00 00 00 00 00 00 00     ................
     988:	03 e0 0f 78 0e 38 1c 1c 1c 1c 1c 1c 1c 1c 1c 7c     ...x.8.........|
     998:	1c fc 0f f8 0f f8 00 38 00 fc 00 00 00 00 00 00     .......8........
     9a8:	1f f0 0e 38 0e 38 0e 38 0e 38 0f f0 0f f0 0e 70     ...8.8.8.8.....p
     9b8:	0e 38 0e 38 0e 38 1e 38 00 00 00 00 00 00 00 00     .8.8.8.8........
     9c8:	0f f0 1c 38 1c 38 1c 38 1c 00 0f e0 07 f0 00 38     ...8.8.8.......8
     9d8:	1c 38 1c 38 1c 38 0f f0 00 00 00 00 00 00 00 00     .8.8.8..........
     9e8:	1f fc 19 cc 11 c4 01 c0 01 c0 01 c0 01 c0 01 c0     ................
     9f8:	01 c0 01 c0 01 c0 07 f0 00 00 00 00 00 00 00 00     ................
     a08:	1c 70 1c 70 1c 70 1c 70 1c 70 1c 70 1c 70 1c 70     .p.p.p.p.p.p.p.p
     a18:	1c 70 1c 70 1c 70 0f e0 00 00 00 00 00 00 00 00     .p.p.p..........
     a28:	1c 70 1c 70 1c 70 1c 70 1c 70 1c 70 1c 70 1c 70     .p.p.p.p.p.p.p.p
     a38:	1c 70 0e e0 07 c0 03 80 00 00 00 00 00 00 00 00     .p..............
     a48:	1c 1c 1c 1c 1c 1c 1c 1c 1c 1c 1c 9c 1c 9c 1c 9c     ................
     a58:	0f f8 0f f8 07 70 07 70 00 00 00 00 00 00 00 00     .....p.p........
     a68:	1c 70 1c 70 1c 70 0e e0 07 c0 03 80 03 80 07 c0     .p.p.p..........
     a78:	0e e0 1c 70 1c 70 1c 70 00 00 00 00 00 00 00 00     ...p.p.p........
     a88:	1c 70 1c 70 1c 70 1c 70 1c 70 0e e0 07 c0 03 80     .p.p.p.p.p......
     a98:	03 80 03 80 03 80 0f e0 00 00 00 00 00 00 00 00     ................
     aa8:	1f f8 1c 38 18 38 10 70 00 e0 01 c0 03 80 07 00     ...8.8.p........
     ab8:	0e 08 1c 18 1c 38 1f f8 00 00 00 00 00 00 00 00     .....8..........
     ac8:	07 f0 07 00 07 00 07 00 07 00 07 00 07 00 07 00     ................
     ad8:	07 00 07 00 07 00 07 f0 00 00 00 00 00 00 00 00     ................
     ae8:	10 00 18 00 1c 00 0e 00 07 00 03 80 01 c0 00 e0     ................
     af8:	00 70 00 38 00 1c 00 07 00 00 00 00 00 00 00 00     .p.8............
     b08:	07 f0 00 70 00 70 00 70 00 70 00 70 00 70 00 70     ...p.p.p.p.p.p.p
     b18:	00 70 00 70 00 70 07 f0 00 00 00 00 00 00 01 80     .p.p.p..........
     b28:	03 c0 07 e0 0e 70 1c 38 00 00 00 00 00 00 00 00     .....p.8........
	...
     b60:	7f ff 7f ff 00 00 00 00 1c 00 1c 00 07 00 07 00     ................
	...
     b90:	0f e0 00 70 00 70 0f f0 1c 70 1c 70 1c 70 0f d8     ...p.p...p.p.p..
	...
     ba8:	1e 00 0e 00 0e 00 0e 00 0f f0 0e 38 0e 38 0e 38     ...........8.8.8
     bb8:	0e 38 0e 38 0e 38 1b f0 00 00 00 00 00 00 00 00     .8.8.8..........
	...
     bd0:	0f e0 1c 70 1c 70 1c 00 1c 00 1c 70 1c 70 0f e0     ...p.p.....p.p..
	...
     be8:	00 f8 00 70 00 70 00 70 0f f0 1c 70 1c 70 1c 70     ...p.p.p...p.p.p
     bf8:	1c 70 1c 70 1c 70 0f d8 00 00 00 00 00 00 00 00     .p.p.p..........
	...
     c10:	0f e0 1c 70 1c 70 1f f0 1c 00 1c 70 1c 70 0f e0     ...p.p.....p.p..
	...
     c28:	03 e0 07 70 07 70 07 00 07 00 1f e0 1f e0 07 00     ...p.p..........
     c38:	07 00 07 00 07 00 1f c0 00 00 00 00 00 00 00 00     ................
	...
     c50:	0f d8 1c 70 1c 70 1c 70 1c 70 0f f0 07 f0 00 70     ...p.p.p.p.....p
     c60:	1c 70 0f e0 00 00 00 00 1e 00 0e 00 0e 00 0e 00     .p..............
     c70:	0e f0 0f 38 0f 38 0e 38 0e 38 0e 38 0e 38 1e 38     ...8.8.8.8.8.8.8
	...
     c88:	01 c0 01 c0 01 c0 00 00 0f c0 01 c0 01 c0 01 c0     ................
     c98:	01 c0 01 c0 01 c0 0f f8 00 00 00 00 00 00 00 00     ................
     ca8:	00 70 00 70 00 70 00 00 03 f0 00 70 00 70 00 70     .p.p.p.....p.p.p
     cb8:	00 70 00 70 00 70 1c 70 0c f0 07 e0 00 00 00 00     .p.p.p.p........
     cc8:	1e 00 0e 00 0e 00 0e 00 0e 38 0e 70 0e e0 0f c0     .........8.p....
     cd8:	0e e0 0e 70 0e 38 1e 38 00 00 00 00 00 00 00 00     ...p.8.8........
     ce8:	0f c0 01 c0 01 c0 01 c0 01 c0 01 c0 01 c0 01 c0     ................
     cf8:	01 c0 01 c0 01 c0 0f f8 00 00 00 00 00 00 00 00     ................
	...
     d10:	1f f8 1c 9c 1c 9c 1c 9c 1c 9c 1c 9c 1c 9c 1c 9c     ................
	...
     d30:	1f e0 1c 70 1c 70 1c 70 1c 70 1c 70 1c 70 1c 70     ...p.p.p.p.p.p.p
	...
     d50:	0f e0 1c 70 1c 70 1c 70 1c 70 1c 70 1c 70 0f e0     ...p.p.p.p.p.p..
	...
     d70:	1b f0 0e 38 0e 38 0e 38 0e 38 0e 38 0f f0 0e 00     ...8.8.8.8.8....
     d80:	0e 00 1f 00 00 00 00 00 00 00 00 00 00 00 00 00     ................
     d90:	1f b0 38 e0 38 e0 38 e0 38 e0 38 e0 1f e0 00 e0     ..8.8.8.8.8.....
     da0:	00 e0 01 f0 00 00 00 00 00 00 00 00 00 00 00 00     ................
     db0:	1e f0 0f f8 0f 38 0e 00 0e 00 0e 00 0e 00 1f 00     .....8..........
	...
     dd0:	0f e0 1c 30 1c 30 0f 80 03 e0 18 70 18 70 0f e0     ...0.0.....p.p..
	...
     de8:	00 00 01 00 03 00 07 00 1f f0 07 00 07 00 07 00     ................
     df8:	07 00 07 70 07 70 03 e0 00 00 00 00 00 00 00 00     ...p.p..........
	...
     e10:	1c 70 1c 70 1c 70 1c 70 1c 70 1c 70 1c 70 0f d8     .p.p.p.p.p.p.p..
	...
     e30:	1c 70 1c 70 1c 70 1c 70 1c 70 0e e0 07 c0 03 80     .p.p.p.p.p......
	...
     e50:	1c 1c 1c 1c 1c 1c 1c 9c 1c 9c 0f f8 07 70 07 70     .............p.p
	...
     e70:	1c e0 1c e0 0f c0 07 80 07 80 0f c0 1c e0 1c e0     ................
	...
     e90:	0e 38 0e 38 0e 38 0e 38 0e 38 07 f0 03 e0 00 e0     .8.8.8.8.8......
     ea0:	01 c0 1f 80 00 00 00 00 00 00 00 00 00 00 00 00     ................
     eb0:	1f e0 18 e0 11 c0 03 80 07 00 0e 20 1c 60 1f e0     ........... .`..
	...
     ec8:	01 f8 03 80 03 80 03 80 07 00 1c 00 1c 00 07 00     ................
     ed8:	03 80 03 80 03 80 01 f8 00 00 00 00 00 00 01 c0     ................
     ee8:	01 c0 01 c0 01 c0 01 c0 01 c0 01 c0 01 c0 01 c0     ................
     ef8:	01 c0 01 c0 01 c0 01 c0 01 c0 00 00 00 00 00 00     ................
     f08:	1f 80 01 c0 01 c0 01 c0 00 e0 00 38 00 38 00 e0     ...........8.8..
     f18:	01 c0 01 c0 01 c0 1f 80 00 00 00 00 00 00 00 00     ................
     f28:	1f 1c 3b 9c 39 dc 38 f8 00 00 00 00 00 00 00 00     ..;.9.8.........
	...

00000f44 <__ctors_end>:
     f44:	11 24       	eor	r1, r1
     f46:	1f be       	out	0x3f, r1	; 63
     f48:	cf e5       	ldi	r28, 0x5F	; 95
     f4a:	d8 e0       	ldi	r29, 0x08	; 8
     f4c:	de bf       	out	0x3e, r29	; 62
     f4e:	cd bf       	out	0x3d, r28	; 61

00000f50 <__do_copy_data>:
     f50:	10 e0       	ldi	r17, 0x00	; 0
     f52:	a0 e6       	ldi	r26, 0x60	; 96
     f54:	b0 e0       	ldi	r27, 0x00	; 0
     f56:	ee ee       	ldi	r30, 0xEE	; 238
     f58:	f0 e2       	ldi	r31, 0x20	; 32
     f5a:	02 c0       	rjmp	.+4      	; 0xf60 <.do_copy_data_start>

00000f5c <.do_copy_data_loop>:
     f5c:	05 90       	lpm	r0, Z+
     f5e:	0d 92       	st	X+, r0

00000f60 <.do_copy_data_start>:
     f60:	a6 36       	cpi	r26, 0x66	; 102
     f62:	b1 07       	cpc	r27, r17
     f64:	d9 f7       	brne	.-10     	; 0xf5c <.do_copy_data_loop>

00000f66 <__do_clear_bss>:
     f66:	10 e0       	ldi	r17, 0x00	; 0
     f68:	a6 e6       	ldi	r26, 0x66	; 102
     f6a:	b0 e0       	ldi	r27, 0x00	; 0
     f6c:	01 c0       	rjmp	.+2      	; 0xf70 <.do_clear_bss_start>

00000f6e <.do_clear_bss_loop>:
     f6e:	1d 92       	st	X+, r1

00000f70 <.do_clear_bss_start>:
     f70:	a0 37       	cpi	r26, 0x70	; 112
     f72:	b1 07       	cpc	r27, r17
     f74:	e1 f7       	brne	.-8      	; 0xf6e <.do_clear_bss_loop>
     f76:	0e 94 d5 0a 	call	0x15aa	; 0x15aa <main>
     f7a:	0c 94 75 10 	jmp	0x20ea	; 0x20ea <_exit>

00000f7e <__bad_interrupt>:
     f7e:	0c 94 00 00 	jmp	0	; 0x0 <__vectors>

00000f82 <TFT_write_command>:
     f82:	94 98       	cbi	0x12, 4	; 18
     f84:	9b bb       	out	0x1b, r25	; 27
     f86:	85 bb       	out	0x15, r24	; 21
     f88:	95 98       	cbi	0x12, 5	; 18
     f8a:	95 9a       	sbi	0x12, 5	; 18
     f8c:	08 95       	ret

00000f8e <TFT_write_data>:
     f8e:	94 9a       	sbi	0x12, 4	; 18
     f90:	9b bb       	out	0x1b, r25	; 27
     f92:	85 bb       	out	0x15, r24	; 21
     f94:	95 98       	cbi	0x12, 5	; 18
     f96:	95 9a       	sbi	0x12, 5	; 18
     f98:	08 95       	ret

00000f9a <TFT_write_command_data>:
     f9a:	0f 93       	push	r16
     f9c:	1f 93       	push	r17
     f9e:	8b 01       	movw	r16, r22
     fa0:	0e 94 c1 07 	call	0xf82	; 0xf82 <TFT_write_command>
     fa4:	c8 01       	movw	r24, r16
     fa6:	0e 94 c7 07 	call	0xf8e	; 0xf8e <TFT_write_data>
     faa:	1f 91       	pop	r17
     fac:	0f 91       	pop	r16
     fae:	08 95       	ret

00000fb0 <LCD_Send_SSD1298>:
     fb0:	0f 93       	push	r16
     fb2:	1f 93       	push	r17
     fb4:	8b 01       	movw	r16, r22
     fb6:	0e 94 c1 07 	call	0xf82	; 0xf82 <TFT_write_command>
     fba:	c8 01       	movw	r24, r16
     fbc:	0e 94 c7 07 	call	0xf8e	; 0xf8e <TFT_write_data>
     fc0:	1f 91       	pop	r17
     fc2:	0f 91       	pop	r16
     fc4:	08 95       	ret

00000fc6 <TFT_write_address>:
     fc6:	cf 92       	push	r12
     fc8:	df 92       	push	r13
     fca:	ef 92       	push	r14
     fcc:	ff 92       	push	r15
     fce:	0f 93       	push	r16
     fd0:	1f 93       	push	r17
     fd2:	8c 01       	movw	r16, r24
     fd4:	6b 01       	movw	r12, r22
     fd6:	79 01       	movw	r14, r18
     fd8:	74 2f       	mov	r23, r20
     fda:	60 e0       	ldi	r22, 0x00	; 0
     fdc:	68 0f       	add	r22, r24
     fde:	79 1f       	adc	r23, r25
     fe0:	84 e4       	ldi	r24, 0x44	; 68
     fe2:	90 e0       	ldi	r25, 0x00	; 0
     fe4:	0e 94 cd 07 	call	0xf9a	; 0xf9a <TFT_write_command_data>
     fe8:	85 e4       	ldi	r24, 0x45	; 69
     fea:	90 e0       	ldi	r25, 0x00	; 0
     fec:	b6 01       	movw	r22, r12
     fee:	0e 94 cd 07 	call	0xf9a	; 0xf9a <TFT_write_command_data>
     ff2:	86 e4       	ldi	r24, 0x46	; 70
     ff4:	90 e0       	ldi	r25, 0x00	; 0
     ff6:	b7 01       	movw	r22, r14
     ff8:	0e 94 cd 07 	call	0xf9a	; 0xf9a <TFT_write_command_data>
     ffc:	8e e4       	ldi	r24, 0x4E	; 78
     ffe:	90 e0       	ldi	r25, 0x00	; 0
    1000:	b8 01       	movw	r22, r16
    1002:	0e 94 cd 07 	call	0xf9a	; 0xf9a <TFT_write_command_data>
    1006:	8f e4       	ldi	r24, 0x4F	; 79
    1008:	90 e0       	ldi	r25, 0x00	; 0
    100a:	b6 01       	movw	r22, r12
    100c:	0e 94 cd 07 	call	0xf9a	; 0xf9a <TFT_write_command_data>
    1010:	82 e2       	ldi	r24, 0x22	; 34
    1012:	90 e0       	ldi	r25, 0x00	; 0
    1014:	0e 94 c1 07 	call	0xf82	; 0xf82 <TFT_write_command>
    1018:	1f 91       	pop	r17
    101a:	0f 91       	pop	r16
    101c:	ff 90       	pop	r15
    101e:	ef 90       	pop	r14
    1020:	df 90       	pop	r13
    1022:	cf 90       	pop	r12
    1024:	08 95       	ret

00001026 <TFT_fill>:
    1026:	0f 93       	push	r16
    1028:	1f 93       	push	r17
    102a:	8c 01       	movw	r16, r24
    102c:	97 98       	cbi	0x12, 7	; 18
    102e:	80 e0       	ldi	r24, 0x00	; 0
    1030:	90 e0       	ldi	r25, 0x00	; 0
    1032:	60 e0       	ldi	r22, 0x00	; 0
    1034:	70 e0       	ldi	r23, 0x00	; 0
    1036:	4f ee       	ldi	r20, 0xEF	; 239
    1038:	50 e0       	ldi	r21, 0x00	; 0
    103a:	2f e3       	ldi	r18, 0x3F	; 63
    103c:	31 e0       	ldi	r19, 0x01	; 1
    103e:	0e 94 e3 07 	call	0xfc6	; 0xfc6 <TFT_write_address>
    1042:	c8 01       	movw	r24, r16
    1044:	0e 94 c7 07 	call	0xf8e	; 0xf8e <TFT_write_data>
    1048:	80 e0       	ldi	r24, 0x00	; 0
    104a:	90 e0       	ldi	r25, 0x00	; 0
    104c:	95 98       	cbi	0x12, 5	; 18
    104e:	95 9a       	sbi	0x12, 5	; 18
    1050:	95 98       	cbi	0x12, 5	; 18
    1052:	95 9a       	sbi	0x12, 5	; 18
    1054:	01 96       	adiw	r24, 0x01	; 1
    1056:	26 e9       	ldi	r18, 0x96	; 150
    1058:	81 30       	cpi	r24, 0x01	; 1
    105a:	92 07       	cpc	r25, r18
    105c:	b9 f7       	brne	.-18     	; 0x104c <TFT_fill+0x26>
    105e:	97 9a       	sbi	0x12, 7	; 18
    1060:	1f 91       	pop	r17
    1062:	0f 91       	pop	r16
    1064:	08 95       	ret

00001066 <TFT_draw_box>:
    1066:	af 92       	push	r10
    1068:	bf 92       	push	r11
    106a:	cf 92       	push	r12
    106c:	df 92       	push	r13
    106e:	ef 92       	push	r14
    1070:	ff 92       	push	r15
    1072:	0f 93       	push	r16
    1074:	1f 93       	push	r17
    1076:	cf 93       	push	r28
    1078:	df 93       	push	r29
    107a:	5b 01       	movw	r10, r22
    107c:	69 01       	movw	r12, r18
    107e:	22 e0       	ldi	r18, 0x02	; 2
    1080:	e2 2e       	mov	r14, r18
    1082:	f1 2c       	mov	r15, r1
    1084:	e7 01       	movw	r28, r14
    1086:	c8 1b       	sub	r28, r24
    1088:	d9 0b       	sbc	r29, r25
    108a:	c4 0f       	add	r28, r20
    108c:	d5 1f       	adc	r29, r21
    108e:	97 98       	cbi	0x12, 7	; 18
    1090:	96 01       	movw	r18, r12
    1092:	0e 94 e3 07 	call	0xfc6	; 0xfc6 <TFT_write_address>
    1096:	c8 01       	movw	r24, r16
    1098:	0e 94 c7 07 	call	0xf8e	; 0xf8e <TFT_write_data>
    109c:	97 01       	movw	r18, r14
    109e:	2a 19       	sub	r18, r10
    10a0:	3b 09       	sbc	r19, r11
    10a2:	2c 0d       	add	r18, r12
    10a4:	3d 1d       	adc	r19, r13
    10a6:	04 c0       	rjmp	.+8      	; 0x10b0 <TFT_draw_box+0x4a>
    10a8:	95 98       	cbi	0x12, 5	; 18
    10aa:	95 9a       	sbi	0x12, 5	; 18
    10ac:	01 97       	sbiw	r24, 0x01	; 1
    10ae:	e1 f7       	brne	.-8      	; 0x10a8 <TFT_draw_box+0x42>
    10b0:	21 50       	subi	r18, 0x01	; 1
    10b2:	30 40       	sbci	r19, 0x00	; 0
    10b4:	11 f0       	breq	.+4      	; 0x10ba <TFT_draw_box+0x54>
    10b6:	ce 01       	movw	r24, r28
    10b8:	f9 cf       	rjmp	.-14     	; 0x10ac <TFT_draw_box+0x46>
    10ba:	97 9a       	sbi	0x12, 7	; 18
    10bc:	df 91       	pop	r29
    10be:	cf 91       	pop	r28
    10c0:	1f 91       	pop	r17
    10c2:	0f 91       	pop	r16
    10c4:	ff 90       	pop	r15
    10c6:	ef 90       	pop	r14
    10c8:	df 90       	pop	r13
    10ca:	cf 90       	pop	r12
    10cc:	bf 90       	pop	r11
    10ce:	af 90       	pop	r10
    10d0:	08 95       	ret

000010d2 <TFT_box_outline>:
    10d2:	2f 92       	push	r2
    10d4:	3f 92       	push	r3
    10d6:	4f 92       	push	r4
    10d8:	5f 92       	push	r5
    10da:	6f 92       	push	r6
    10dc:	7f 92       	push	r7
    10de:	8f 92       	push	r8
    10e0:	9f 92       	push	r9
    10e2:	af 92       	push	r10
    10e4:	bf 92       	push	r11
    10e6:	cf 92       	push	r12
    10e8:	df 92       	push	r13
    10ea:	ef 92       	push	r14
    10ec:	ff 92       	push	r15
    10ee:	0f 93       	push	r16
    10f0:	1f 93       	push	r17
    10f2:	3c 01       	movw	r6, r24
    10f4:	2a 01       	movw	r4, r20
    10f6:	19 01       	movw	r2, r18
    10f8:	68 01       	movw	r12, r16
    10fa:	08 94       	sec
    10fc:	c1 08       	sbc	r12, r1
    10fe:	d1 08       	sbc	r13, r1
    1100:	46 01       	movw	r8, r12
    1102:	86 0e       	add	r8, r22
    1104:	97 1e       	adc	r9, r23
    1106:	94 01       	movw	r18, r8
    1108:	87 01       	movw	r16, r14
    110a:	0e 94 33 08 	call	0x1066	; 0x1066 <TFT_draw_box>
    110e:	51 01       	movw	r10, r2
    1110:	ac 18       	sub	r10, r12
    1112:	bd 08       	sbc	r11, r13
    1114:	a6 01       	movw	r20, r12
    1116:	46 0d       	add	r20, r6
    1118:	57 1d       	adc	r21, r7
    111a:	c3 01       	movw	r24, r6
    111c:	b4 01       	movw	r22, r8
    111e:	95 01       	movw	r18, r10
    1120:	0e 94 33 08 	call	0x1066	; 0x1066 <TFT_draw_box>
    1124:	c2 01       	movw	r24, r4
    1126:	8c 19       	sub	r24, r12
    1128:	9d 09       	sbc	r25, r13
    112a:	b4 01       	movw	r22, r8
    112c:	a2 01       	movw	r20, r4
    112e:	95 01       	movw	r18, r10
    1130:	0e 94 33 08 	call	0x1066	; 0x1066 <TFT_draw_box>
    1134:	c3 01       	movw	r24, r6
    1136:	b5 01       	movw	r22, r10
    1138:	a2 01       	movw	r20, r4
    113a:	91 01       	movw	r18, r2
    113c:	0e 94 33 08 	call	0x1066	; 0x1066 <TFT_draw_box>
    1140:	1f 91       	pop	r17
    1142:	0f 91       	pop	r16
    1144:	ff 90       	pop	r15
    1146:	ef 90       	pop	r14
    1148:	df 90       	pop	r13
    114a:	cf 90       	pop	r12
    114c:	bf 90       	pop	r11
    114e:	af 90       	pop	r10
    1150:	9f 90       	pop	r9
    1152:	8f 90       	pop	r8
    1154:	7f 90       	pop	r7
    1156:	6f 90       	pop	r6
    1158:	5f 90       	pop	r5
    115a:	4f 90       	pop	r4
    115c:	3f 90       	pop	r3
    115e:	2f 90       	pop	r2
    1160:	08 95       	ret

00001162 <TFT_dot>:
    1162:	0f 93       	push	r16
    1164:	1f 93       	push	r17
    1166:	fc 01       	movw	r30, r24
    1168:	9b 01       	movw	r18, r22
    116a:	8a 01       	movw	r16, r20
    116c:	97 98       	cbi	0x12, 7	; 18
    116e:	af 01       	movw	r20, r30
    1170:	0e 94 e3 07 	call	0xfc6	; 0xfc6 <TFT_write_address>
    1174:	c8 01       	movw	r24, r16
    1176:	0e 94 c7 07 	call	0xf8e	; 0xf8e <TFT_write_data>
    117a:	97 9a       	sbi	0x12, 7	; 18
    117c:	1f 91       	pop	r17
    117e:	0f 91       	pop	r16
    1180:	08 95       	ret

00001182 <TFT_init>:
    1182:	0f 93       	push	r16
    1184:	1f 93       	push	r17
    1186:	8f ef       	ldi	r24, 0xFF	; 255
    1188:	84 bb       	out	0x14, r24	; 20
    118a:	8a bb       	out	0x1a, r24	; 26
    118c:	85 bb       	out	0x15, r24	; 21
    118e:	8b bb       	out	0x1b, r24	; 27
    1190:	81 bb       	out	0x11, r24	; 17
    1192:	82 bb       	out	0x12, r24	; 18
    1194:	88 ee       	ldi	r24, 0xE8	; 232
    1196:	93 e0       	ldi	r25, 0x03	; 3
    1198:	20 e9       	ldi	r18, 0x90	; 144
    119a:	31 e0       	ldi	r19, 0x01	; 1
    119c:	f9 01       	movw	r30, r18
    119e:	31 97       	sbiw	r30, 0x01	; 1
    11a0:	f1 f7       	brne	.-4      	; 0x119e <TFT_init+0x1c>
    11a2:	01 97       	sbiw	r24, 0x01	; 1
    11a4:	d9 f7       	brne	.-10     	; 0x119c <TFT_init+0x1a>
    11a6:	97 98       	cbi	0x12, 7	; 18
    11a8:	93 98       	cbi	0x12, 3	; 18
    11aa:	80 e4       	ldi	r24, 0x40	; 64
    11ac:	9c e9       	ldi	r25, 0x9C	; 156
    11ae:	fc 01       	movw	r30, r24
    11b0:	31 97       	sbiw	r30, 0x01	; 1
    11b2:	f1 f7       	brne	.-4      	; 0x11b0 <TFT_init+0x2e>
    11b4:	93 9a       	sbi	0x12, 3	; 18
    11b6:	01 97       	sbiw	r24, 0x01	; 1
    11b8:	f1 f7       	brne	.-4      	; 0x11b6 <TFT_init+0x34>
    11ba:	80 e0       	ldi	r24, 0x00	; 0
    11bc:	90 e0       	ldi	r25, 0x00	; 0
    11be:	61 e0       	ldi	r22, 0x01	; 1
    11c0:	70 e0       	ldi	r23, 0x00	; 0
    11c2:	0e 94 d8 07 	call	0xfb0	; 0xfb0 <LCD_Send_SSD1298>
    11c6:	00 e2       	ldi	r16, 0x20	; 32
    11c8:	1e e4       	ldi	r17, 0x4E	; 78
    11ca:	c8 01       	movw	r24, r16
    11cc:	01 97       	sbiw	r24, 0x01	; 1
    11ce:	f1 f7       	brne	.-4      	; 0x11cc <TFT_init+0x4a>
    11d0:	83 e0       	ldi	r24, 0x03	; 3
    11d2:	90 e0       	ldi	r25, 0x00	; 0
    11d4:	64 ea       	ldi	r22, 0xA4	; 164
    11d6:	78 ea       	ldi	r23, 0xA8	; 168
    11d8:	0e 94 d8 07 	call	0xfb0	; 0xfb0 <LCD_Send_SSD1298>
    11dc:	c8 01       	movw	r24, r16
    11de:	01 97       	sbiw	r24, 0x01	; 1
    11e0:	f1 f7       	brne	.-4      	; 0x11de <TFT_init+0x5c>
    11e2:	8c e0       	ldi	r24, 0x0C	; 12
    11e4:	90 e0       	ldi	r25, 0x00	; 0
    11e6:	60 e0       	ldi	r22, 0x00	; 0
    11e8:	70 e0       	ldi	r23, 0x00	; 0
    11ea:	0e 94 d8 07 	call	0xfb0	; 0xfb0 <LCD_Send_SSD1298>
    11ee:	c8 01       	movw	r24, r16
    11f0:	01 97       	sbiw	r24, 0x01	; 1
    11f2:	f1 f7       	brne	.-4      	; 0x11f0 <TFT_init+0x6e>
    11f4:	8d e0       	ldi	r24, 0x0D	; 13
    11f6:	90 e0       	ldi	r25, 0x00	; 0
    11f8:	6c e0       	ldi	r22, 0x0C	; 12
    11fa:	78 e0       	ldi	r23, 0x08	; 8
    11fc:	0e 94 d8 07 	call	0xfb0	; 0xfb0 <LCD_Send_SSD1298>
    1200:	c8 01       	movw	r24, r16
    1202:	01 97       	sbiw	r24, 0x01	; 1
    1204:	f1 f7       	brne	.-4      	; 0x1202 <TFT_init+0x80>
    1206:	8e e0       	ldi	r24, 0x0E	; 14
    1208:	90 e0       	ldi	r25, 0x00	; 0
    120a:	60 e0       	ldi	r22, 0x00	; 0
    120c:	7b e2       	ldi	r23, 0x2B	; 43
    120e:	0e 94 d8 07 	call	0xfb0	; 0xfb0 <LCD_Send_SSD1298>
    1212:	c8 01       	movw	r24, r16
    1214:	01 97       	sbiw	r24, 0x01	; 1
    1216:	f1 f7       	brne	.-4      	; 0x1214 <TFT_init+0x92>
    1218:	8e e1       	ldi	r24, 0x1E	; 30
    121a:	90 e0       	ldi	r25, 0x00	; 0
    121c:	60 eb       	ldi	r22, 0xB0	; 176
    121e:	70 e0       	ldi	r23, 0x00	; 0
    1220:	0e 94 d8 07 	call	0xfb0	; 0xfb0 <LCD_Send_SSD1298>
    1224:	c8 01       	movw	r24, r16
    1226:	01 97       	sbiw	r24, 0x01	; 1
    1228:	f1 f7       	brne	.-4      	; 0x1226 <TFT_init+0xa4>
    122a:	81 e0       	ldi	r24, 0x01	; 1
    122c:	90 e0       	ldi	r25, 0x00	; 0
    122e:	6f e3       	ldi	r22, 0x3F	; 63
    1230:	7b e2       	ldi	r23, 0x2B	; 43
    1232:	0e 94 d8 07 	call	0xfb0	; 0xfb0 <LCD_Send_SSD1298>
    1236:	c8 01       	movw	r24, r16
    1238:	01 97       	sbiw	r24, 0x01	; 1
    123a:	f1 f7       	brne	.-4      	; 0x1238 <TFT_init+0xb6>
    123c:	82 e0       	ldi	r24, 0x02	; 2
    123e:	90 e0       	ldi	r25, 0x00	; 0
    1240:	60 e0       	ldi	r22, 0x00	; 0
    1242:	76 e0       	ldi	r23, 0x06	; 6
    1244:	0e 94 d8 07 	call	0xfb0	; 0xfb0 <LCD_Send_SSD1298>
    1248:	c8 01       	movw	r24, r16
    124a:	01 97       	sbiw	r24, 0x01	; 1
    124c:	f1 f7       	brne	.-4      	; 0x124a <TFT_init+0xc8>
    124e:	80 e1       	ldi	r24, 0x10	; 16
    1250:	90 e0       	ldi	r25, 0x00	; 0
    1252:	60 e0       	ldi	r22, 0x00	; 0
    1254:	70 e0       	ldi	r23, 0x00	; 0
    1256:	0e 94 d8 07 	call	0xfb0	; 0xfb0 <LCD_Send_SSD1298>
    125a:	8c e2       	ldi	r24, 0x2C	; 44
    125c:	91 e0       	ldi	r25, 0x01	; 1
    125e:	20 e9       	ldi	r18, 0x90	; 144
    1260:	31 e0       	ldi	r19, 0x01	; 1
    1262:	f9 01       	movw	r30, r18
    1264:	31 97       	sbiw	r30, 0x01	; 1
    1266:	f1 f7       	brne	.-4      	; 0x1264 <TFT_init+0xe2>
    1268:	01 97       	sbiw	r24, 0x01	; 1
    126a:	d9 f7       	brne	.-10     	; 0x1262 <TFT_init+0xe0>
    126c:	81 e1       	ldi	r24, 0x11	; 17
    126e:	90 e0       	ldi	r25, 0x00	; 0
    1270:	60 e7       	ldi	r22, 0x70	; 112
    1272:	78 e6       	ldi	r23, 0x68	; 104
    1274:	0e 94 d8 07 	call	0xfb0	; 0xfb0 <LCD_Send_SSD1298>
    1278:	00 e2       	ldi	r16, 0x20	; 32
    127a:	1e e4       	ldi	r17, 0x4E	; 78
    127c:	c8 01       	movw	r24, r16
    127e:	01 97       	sbiw	r24, 0x01	; 1
    1280:	f1 f7       	brne	.-4      	; 0x127e <TFT_init+0xfc>
    1282:	87 e0       	ldi	r24, 0x07	; 7
    1284:	90 e0       	ldi	r25, 0x00	; 0
    1286:	63 e3       	ldi	r22, 0x33	; 51
    1288:	79 e1       	ldi	r23, 0x19	; 25
    128a:	0e 94 d8 07 	call	0xfb0	; 0xfb0 <LCD_Send_SSD1298>
    128e:	c8 01       	movw	r24, r16
    1290:	01 97       	sbiw	r24, 0x01	; 1
    1292:	f1 f7       	brne	.-4      	; 0x1290 <TFT_init+0x10e>
    1294:	85 e0       	ldi	r24, 0x05	; 5
    1296:	90 e0       	ldi	r25, 0x00	; 0
    1298:	60 e0       	ldi	r22, 0x00	; 0
    129a:	70 e0       	ldi	r23, 0x00	; 0
    129c:	0e 94 d8 07 	call	0xfb0	; 0xfb0 <LCD_Send_SSD1298>
    12a0:	c8 01       	movw	r24, r16
    12a2:	01 97       	sbiw	r24, 0x01	; 1
    12a4:	f1 f7       	brne	.-4      	; 0x12a2 <TFT_init+0x120>
    12a6:	86 e0       	ldi	r24, 0x06	; 6
    12a8:	90 e0       	ldi	r25, 0x00	; 0
    12aa:	60 e0       	ldi	r22, 0x00	; 0
    12ac:	70 e0       	ldi	r23, 0x00	; 0
    12ae:	0e 94 d8 07 	call	0xfb0	; 0xfb0 <LCD_Send_SSD1298>
    12b2:	c8 01       	movw	r24, r16
    12b4:	01 97       	sbiw	r24, 0x01	; 1
    12b6:	f1 f7       	brne	.-4      	; 0x12b4 <TFT_init+0x132>
    12b8:	86 e1       	ldi	r24, 0x16	; 22
    12ba:	90 e0       	ldi	r25, 0x00	; 0
    12bc:	6c e1       	ldi	r22, 0x1C	; 28
    12be:	7f ee       	ldi	r23, 0xEF	; 239
    12c0:	0e 94 d8 07 	call	0xfb0	; 0xfb0 <LCD_Send_SSD1298>
    12c4:	c8 01       	movw	r24, r16
    12c6:	01 97       	sbiw	r24, 0x01	; 1
    12c8:	f1 f7       	brne	.-4      	; 0x12c6 <TFT_init+0x144>
    12ca:	87 e1       	ldi	r24, 0x17	; 23
    12cc:	90 e0       	ldi	r25, 0x00	; 0
    12ce:	63 e0       	ldi	r22, 0x03	; 3
    12d0:	70 e0       	ldi	r23, 0x00	; 0
    12d2:	0e 94 d8 07 	call	0xfb0	; 0xfb0 <LCD_Send_SSD1298>
    12d6:	c8 01       	movw	r24, r16
    12d8:	01 97       	sbiw	r24, 0x01	; 1
    12da:	f1 f7       	brne	.-4      	; 0x12d8 <TFT_init+0x156>
    12dc:	8b e0       	ldi	r24, 0x0B	; 11
    12de:	90 e0       	ldi	r25, 0x00	; 0
    12e0:	60 e0       	ldi	r22, 0x00	; 0
    12e2:	70 e0       	ldi	r23, 0x00	; 0
    12e4:	0e 94 d8 07 	call	0xfb0	; 0xfb0 <LCD_Send_SSD1298>
    12e8:	c8 01       	movw	r24, r16
    12ea:	01 97       	sbiw	r24, 0x01	; 1
    12ec:	f1 f7       	brne	.-4      	; 0x12ea <TFT_init+0x168>
    12ee:	8f e0       	ldi	r24, 0x0F	; 15
    12f0:	90 e0       	ldi	r25, 0x00	; 0
    12f2:	60 e0       	ldi	r22, 0x00	; 0
    12f4:	70 e0       	ldi	r23, 0x00	; 0
    12f6:	0e 94 d8 07 	call	0xfb0	; 0xfb0 <LCD_Send_SSD1298>
    12fa:	c8 01       	movw	r24, r16
    12fc:	01 97       	sbiw	r24, 0x01	; 1
    12fe:	f1 f7       	brne	.-4      	; 0x12fc <TFT_init+0x17a>
    1300:	81 e4       	ldi	r24, 0x41	; 65
    1302:	90 e0       	ldi	r25, 0x00	; 0
    1304:	60 e0       	ldi	r22, 0x00	; 0
    1306:	70 e0       	ldi	r23, 0x00	; 0
    1308:	0e 94 d8 07 	call	0xfb0	; 0xfb0 <LCD_Send_SSD1298>
    130c:	c8 01       	movw	r24, r16
    130e:	01 97       	sbiw	r24, 0x01	; 1
    1310:	f1 f7       	brne	.-4      	; 0x130e <TFT_init+0x18c>
    1312:	82 e4       	ldi	r24, 0x42	; 66
    1314:	90 e0       	ldi	r25, 0x00	; 0
    1316:	60 e0       	ldi	r22, 0x00	; 0
    1318:	70 e0       	ldi	r23, 0x00	; 0
    131a:	0e 94 d8 07 	call	0xfb0	; 0xfb0 <LCD_Send_SSD1298>
    131e:	c8 01       	movw	r24, r16
    1320:	01 97       	sbiw	r24, 0x01	; 1
    1322:	f1 f7       	brne	.-4      	; 0x1320 <TFT_init+0x19e>
    1324:	88 e4       	ldi	r24, 0x48	; 72
    1326:	90 e0       	ldi	r25, 0x00	; 0
    1328:	60 e0       	ldi	r22, 0x00	; 0
    132a:	70 e0       	ldi	r23, 0x00	; 0
    132c:	0e 94 d8 07 	call	0xfb0	; 0xfb0 <LCD_Send_SSD1298>
    1330:	c8 01       	movw	r24, r16
    1332:	01 97       	sbiw	r24, 0x01	; 1
    1334:	f1 f7       	brne	.-4      	; 0x1332 <TFT_init+0x1b0>
    1336:	89 e4       	ldi	r24, 0x49	; 73
    1338:	90 e0       	ldi	r25, 0x00	; 0
    133a:	6f e3       	ldi	r22, 0x3F	; 63
    133c:	71 e0       	ldi	r23, 0x01	; 1
    133e:	0e 94 d8 07 	call	0xfb0	; 0xfb0 <LCD_Send_SSD1298>
    1342:	c8 01       	movw	r24, r16
    1344:	01 97       	sbiw	r24, 0x01	; 1
    1346:	f1 f7       	brne	.-4      	; 0x1344 <TFT_init+0x1c2>
    1348:	8b e4       	ldi	r24, 0x4B	; 75
    134a:	90 e0       	ldi	r25, 0x00	; 0
    134c:	60 e0       	ldi	r22, 0x00	; 0
    134e:	70 e0       	ldi	r23, 0x00	; 0
    1350:	0e 94 d8 07 	call	0xfb0	; 0xfb0 <LCD_Send_SSD1298>
    1354:	c8 01       	movw	r24, r16
    1356:	01 97       	sbiw	r24, 0x01	; 1
    1358:	f1 f7       	brne	.-4      	; 0x1356 <TFT_init+0x1d4>
    135a:	84 e4       	ldi	r24, 0x44	; 68
    135c:	90 e0       	ldi	r25, 0x00	; 0
    135e:	60 e0       	ldi	r22, 0x00	; 0
    1360:	7f ee       	ldi	r23, 0xEF	; 239
    1362:	0e 94 d8 07 	call	0xfb0	; 0xfb0 <LCD_Send_SSD1298>
    1366:	c8 01       	movw	r24, r16
    1368:	01 97       	sbiw	r24, 0x01	; 1
    136a:	f1 f7       	brne	.-4      	; 0x1368 <TFT_init+0x1e6>
    136c:	85 e4       	ldi	r24, 0x45	; 69
    136e:	90 e0       	ldi	r25, 0x00	; 0
    1370:	60 e0       	ldi	r22, 0x00	; 0
    1372:	70 e0       	ldi	r23, 0x00	; 0
    1374:	0e 94 d8 07 	call	0xfb0	; 0xfb0 <LCD_Send_SSD1298>
    1378:	c8 01       	movw	r24, r16
    137a:	01 97       	sbiw	r24, 0x01	; 1
    137c:	f1 f7       	brne	.-4      	; 0x137a <TFT_init+0x1f8>
    137e:	86 e4       	ldi	r24, 0x46	; 70
    1380:	90 e0       	ldi	r25, 0x00	; 0
    1382:	6f e3       	ldi	r22, 0x3F	; 63
    1384:	71 e0       	ldi	r23, 0x01	; 1
    1386:	0e 94 d8 07 	call	0xfb0	; 0xfb0 <LCD_Send_SSD1298>
    138a:	c8 01       	movw	r24, r16
    138c:	01 97       	sbiw	r24, 0x01	; 1
    138e:	f1 f7       	brne	.-4      	; 0x138c <TFT_init+0x20a>
    1390:	80 e3       	ldi	r24, 0x30	; 48
    1392:	90 e0       	ldi	r25, 0x00	; 0
    1394:	67 e0       	ldi	r22, 0x07	; 7
    1396:	77 e0       	ldi	r23, 0x07	; 7
    1398:	0e 94 d8 07 	call	0xfb0	; 0xfb0 <LCD_Send_SSD1298>
    139c:	c8 01       	movw	r24, r16
    139e:	01 97       	sbiw	r24, 0x01	; 1
    13a0:	f1 f7       	brne	.-4      	; 0x139e <TFT_init+0x21c>
    13a2:	81 e3       	ldi	r24, 0x31	; 49
    13a4:	90 e0       	ldi	r25, 0x00	; 0
    13a6:	64 e0       	ldi	r22, 0x04	; 4
    13a8:	72 e0       	ldi	r23, 0x02	; 2
    13aa:	0e 94 d8 07 	call	0xfb0	; 0xfb0 <LCD_Send_SSD1298>
    13ae:	c8 01       	movw	r24, r16
    13b0:	01 97       	sbiw	r24, 0x01	; 1
    13b2:	f1 f7       	brne	.-4      	; 0x13b0 <TFT_init+0x22e>
    13b4:	82 e3       	ldi	r24, 0x32	; 50
    13b6:	90 e0       	ldi	r25, 0x00	; 0
    13b8:	64 e0       	ldi	r22, 0x04	; 4
    13ba:	72 e0       	ldi	r23, 0x02	; 2
    13bc:	0e 94 d8 07 	call	0xfb0	; 0xfb0 <LCD_Send_SSD1298>
    13c0:	c8 01       	movw	r24, r16
    13c2:	01 97       	sbiw	r24, 0x01	; 1
    13c4:	f1 f7       	brne	.-4      	; 0x13c2 <TFT_init+0x240>
    13c6:	83 e3       	ldi	r24, 0x33	; 51
    13c8:	90 e0       	ldi	r25, 0x00	; 0
    13ca:	62 e0       	ldi	r22, 0x02	; 2
    13cc:	75 e0       	ldi	r23, 0x05	; 5
    13ce:	0e 94 d8 07 	call	0xfb0	; 0xfb0 <LCD_Send_SSD1298>
    13d2:	c8 01       	movw	r24, r16
    13d4:	01 97       	sbiw	r24, 0x01	; 1
    13d6:	f1 f7       	brne	.-4      	; 0x13d4 <TFT_init+0x252>
    13d8:	84 e3       	ldi	r24, 0x34	; 52
    13da:	90 e0       	ldi	r25, 0x00	; 0
    13dc:	67 e0       	ldi	r22, 0x07	; 7
    13de:	75 e0       	ldi	r23, 0x05	; 5
    13e0:	0e 94 d8 07 	call	0xfb0	; 0xfb0 <LCD_Send_SSD1298>
    13e4:	c8 01       	movw	r24, r16
    13e6:	01 97       	sbiw	r24, 0x01	; 1
    13e8:	f1 f7       	brne	.-4      	; 0x13e6 <TFT_init+0x264>
    13ea:	85 e3       	ldi	r24, 0x35	; 53
    13ec:	90 e0       	ldi	r25, 0x00	; 0
    13ee:	64 e0       	ldi	r22, 0x04	; 4
    13f0:	72 e0       	ldi	r23, 0x02	; 2
    13f2:	0e 94 d8 07 	call	0xfb0	; 0xfb0 <LCD_Send_SSD1298>
    13f6:	c8 01       	movw	r24, r16
    13f8:	01 97       	sbiw	r24, 0x01	; 1
    13fa:	f1 f7       	brne	.-4      	; 0x13f8 <TFT_init+0x276>
    13fc:	86 e3       	ldi	r24, 0x36	; 54
    13fe:	90 e0       	ldi	r25, 0x00	; 0
    1400:	64 e0       	ldi	r22, 0x04	; 4
    1402:	72 e0       	ldi	r23, 0x02	; 2
    1404:	0e 94 d8 07 	call	0xfb0	; 0xfb0 <LCD_Send_SSD1298>
    1408:	c8 01       	movw	r24, r16
    140a:	01 97       	sbiw	r24, 0x01	; 1
    140c:	f1 f7       	brne	.-4      	; 0x140a <TFT_init+0x288>
    140e:	87 e3       	ldi	r24, 0x37	; 55
    1410:	90 e0       	ldi	r25, 0x00	; 0
    1412:	62 e0       	ldi	r22, 0x02	; 2
    1414:	75 e0       	ldi	r23, 0x05	; 5
    1416:	0e 94 d8 07 	call	0xfb0	; 0xfb0 <LCD_Send_SSD1298>
    141a:	c8 01       	movw	r24, r16
    141c:	01 97       	sbiw	r24, 0x01	; 1
    141e:	f1 f7       	brne	.-4      	; 0x141c <TFT_init+0x29a>
    1420:	8a e3       	ldi	r24, 0x3A	; 58
    1422:	90 e0       	ldi	r25, 0x00	; 0
    1424:	62 e0       	ldi	r22, 0x02	; 2
    1426:	73 e0       	ldi	r23, 0x03	; 3
    1428:	0e 94 d8 07 	call	0xfb0	; 0xfb0 <LCD_Send_SSD1298>
    142c:	c8 01       	movw	r24, r16
    142e:	01 97       	sbiw	r24, 0x01	; 1
    1430:	f1 f7       	brne	.-4      	; 0x142e <TFT_init+0x2ac>
    1432:	8b e3       	ldi	r24, 0x3B	; 59
    1434:	90 e0       	ldi	r25, 0x00	; 0
    1436:	62 e0       	ldi	r22, 0x02	; 2
    1438:	73 e0       	ldi	r23, 0x03	; 3
    143a:	0e 94 d8 07 	call	0xfb0	; 0xfb0 <LCD_Send_SSD1298>
    143e:	c8 01       	movw	r24, r16
    1440:	01 97       	sbiw	r24, 0x01	; 1
    1442:	f1 f7       	brne	.-4      	; 0x1440 <TFT_init+0x2be>
    1444:	83 e2       	ldi	r24, 0x23	; 35
    1446:	90 e0       	ldi	r25, 0x00	; 0
    1448:	60 e0       	ldi	r22, 0x00	; 0
    144a:	70 e0       	ldi	r23, 0x00	; 0
    144c:	0e 94 d8 07 	call	0xfb0	; 0xfb0 <LCD_Send_SSD1298>
    1450:	c8 01       	movw	r24, r16
    1452:	01 97       	sbiw	r24, 0x01	; 1
    1454:	f1 f7       	brne	.-4      	; 0x1452 <TFT_init+0x2d0>
    1456:	84 e2       	ldi	r24, 0x24	; 36
    1458:	90 e0       	ldi	r25, 0x00	; 0
    145a:	60 e0       	ldi	r22, 0x00	; 0
    145c:	70 e0       	ldi	r23, 0x00	; 0
    145e:	0e 94 d8 07 	call	0xfb0	; 0xfb0 <LCD_Send_SSD1298>
    1462:	c8 01       	movw	r24, r16
    1464:	01 97       	sbiw	r24, 0x01	; 1
    1466:	f1 f7       	brne	.-4      	; 0x1464 <TFT_init+0x2e2>
    1468:	85 e2       	ldi	r24, 0x25	; 37
    146a:	90 e0       	ldi	r25, 0x00	; 0
    146c:	60 e0       	ldi	r22, 0x00	; 0
    146e:	70 e8       	ldi	r23, 0x80	; 128
    1470:	0e 94 d8 07 	call	0xfb0	; 0xfb0 <LCD_Send_SSD1298>
    1474:	c8 01       	movw	r24, r16
    1476:	01 97       	sbiw	r24, 0x01	; 1
    1478:	f1 f7       	brne	.-4      	; 0x1476 <TFT_init+0x2f4>
    147a:	8f e4       	ldi	r24, 0x4F	; 79
    147c:	90 e0       	ldi	r25, 0x00	; 0
    147e:	60 e0       	ldi	r22, 0x00	; 0
    1480:	70 e0       	ldi	r23, 0x00	; 0
    1482:	0e 94 d8 07 	call	0xfb0	; 0xfb0 <LCD_Send_SSD1298>
    1486:	8e e4       	ldi	r24, 0x4E	; 78
    1488:	90 e0       	ldi	r25, 0x00	; 0
    148a:	60 e0       	ldi	r22, 0x00	; 0
    148c:	70 e0       	ldi	r23, 0x00	; 0
    148e:	0e 94 d8 07 	call	0xfb0	; 0xfb0 <LCD_Send_SSD1298>
    1492:	82 e2       	ldi	r24, 0x22	; 34
    1494:	90 e0       	ldi	r25, 0x00	; 0
    1496:	0e 94 c1 07 	call	0xf82	; 0xf82 <TFT_write_command>
    149a:	97 9a       	sbi	0x12, 7	; 18
    149c:	1f 91       	pop	r17
    149e:	0f 91       	pop	r16
    14a0:	08 95       	ret

000014a2 <TFT_char>:
    14a2:	2f 92       	push	r2
    14a4:	3f 92       	push	r3
    14a6:	4f 92       	push	r4
    14a8:	5f 92       	push	r5
    14aa:	6f 92       	push	r6
    14ac:	7f 92       	push	r7
    14ae:	8f 92       	push	r8
    14b0:	9f 92       	push	r9
    14b2:	af 92       	push	r10
    14b4:	bf 92       	push	r11
    14b6:	cf 92       	push	r12
    14b8:	df 92       	push	r13
    14ba:	ef 92       	push	r14
    14bc:	ff 92       	push	r15
    14be:	0f 93       	push	r16
    14c0:	1f 93       	push	r17
    14c2:	cf 93       	push	r28
    14c4:	df 93       	push	r29
    14c6:	fa 01       	movw	r30, r20
    14c8:	d9 01       	movw	r26, r18
    14ca:	18 01       	movw	r2, r16
    14cc:	27 01       	movw	r4, r14
    14ce:	46 01       	movw	r8, r12
    14d0:	96 01       	movw	r18, r12
    14d2:	53 e0       	ldi	r21, 0x03	; 3
    14d4:	36 95       	lsr	r19
    14d6:	27 95       	ror	r18
    14d8:	5a 95       	dec	r21
    14da:	e1 f7       	brne	.-8      	; 0x14d4 <TFT_char+0x32>
    14dc:	a9 01       	movw	r20, r18
    14de:	a4 9e       	mul	r10, r20
    14e0:	90 01       	movw	r18, r0
    14e2:	a5 9e       	mul	r10, r21
    14e4:	30 0d       	add	r19, r0
    14e6:	b4 9e       	mul	r11, r20
    14e8:	30 0d       	add	r19, r0
    14ea:	11 24       	eor	r1, r1
    14ec:	70 e0       	ldi	r23, 0x00	; 0
    14ee:	60 52       	subi	r22, 0x20	; 32
    14f0:	70 40       	sbci	r23, 0x00	; 0
    14f2:	26 9f       	mul	r18, r22
    14f4:	70 01       	movw	r14, r0
    14f6:	27 9f       	mul	r18, r23
    14f8:	f0 0c       	add	r15, r0
    14fa:	36 9f       	mul	r19, r22
    14fc:	f0 0c       	add	r15, r0
    14fe:	11 24       	eor	r1, r1
    1500:	e8 0e       	add	r14, r24
    1502:	f9 1e       	adc	r15, r25
    1504:	97 98       	cbi	0x12, 7	; 18
    1506:	af 01       	movw	r20, r30
    1508:	41 50       	subi	r20, 0x01	; 1
    150a:	50 40       	sbci	r21, 0x00	; 0
    150c:	4c 0d       	add	r20, r12
    150e:	5d 1d       	adc	r21, r13
    1510:	9d 01       	movw	r18, r26
    1512:	21 50       	subi	r18, 0x01	; 1
    1514:	30 40       	sbci	r19, 0x00	; 0
    1516:	2a 0d       	add	r18, r10
    1518:	3b 1d       	adc	r19, r11
    151a:	cf 01       	movw	r24, r30
    151c:	bd 01       	movw	r22, r26
    151e:	0e 94 e3 07 	call	0xfc6	; 0xfc6 <TFT_write_address>
    1522:	cc 24       	eor	r12, r12
    1524:	dd 24       	eor	r13, r13
    1526:	66 24       	eor	r6, r6
    1528:	40 e8       	ldi	r20, 0x80	; 128
    152a:	74 2e       	mov	r7, r20
    152c:	21 c0       	rjmp	.+66     	; 0x1570 <TFT_char+0xce>
    152e:	ce 01       	movw	r24, r28
    1530:	87 70       	andi	r24, 0x07	; 7
    1532:	90 70       	andi	r25, 0x00	; 0
    1534:	89 2b       	or	r24, r25
    1536:	41 f4       	brne	.+16     	; 0x1548 <TFT_char+0xa6>
    1538:	f7 01       	movw	r30, r14
    153a:	84 91       	lpm	r24, Z+
    153c:	08 94       	sec
    153e:	e1 1c       	adc	r14, r1
    1540:	f1 1c       	adc	r15, r1
    1542:	68 2e       	mov	r6, r24
    1544:	30 e8       	ldi	r19, 0x80	; 128
    1546:	73 2e       	mov	r7, r19
    1548:	87 2d       	mov	r24, r7
    154a:	86 21       	and	r24, r6
    154c:	11 f0       	breq	.+4      	; 0x1552 <TFT_char+0xb0>
    154e:	c1 01       	movw	r24, r2
    1550:	01 c0       	rjmp	.+2      	; 0x1554 <TFT_char+0xb2>
    1552:	c2 01       	movw	r24, r4
    1554:	0e 94 c7 07 	call	0xf8e	; 0xf8e <TFT_write_data>
    1558:	76 94       	lsr	r7
    155a:	21 96       	adiw	r28, 0x01	; 1
    155c:	01 50       	subi	r16, 0x01	; 1
    155e:	10 40       	sbci	r17, 0x00	; 0
    1560:	01 15       	cp	r16, r1
    1562:	11 05       	cpc	r17, r1
    1564:	21 f7       	brne	.-56     	; 0x152e <TFT_char+0x8c>
    1566:	c8 0c       	add	r12, r8
    1568:	d9 1c       	adc	r13, r9
    156a:	08 94       	sec
    156c:	a1 08       	sbc	r10, r1
    156e:	b1 08       	sbc	r11, r1
    1570:	a1 14       	cp	r10, r1
    1572:	b1 04       	cpc	r11, r1
    1574:	19 f0       	breq	.+6      	; 0x157c <TFT_char+0xda>
    1576:	84 01       	movw	r16, r8
    1578:	e6 01       	movw	r28, r12
    157a:	f2 cf       	rjmp	.-28     	; 0x1560 <TFT_char+0xbe>
    157c:	97 9a       	sbi	0x12, 7	; 18
    157e:	df 91       	pop	r29
    1580:	cf 91       	pop	r28
    1582:	1f 91       	pop	r17
    1584:	0f 91       	pop	r16
    1586:	ff 90       	pop	r15
    1588:	ef 90       	pop	r14
    158a:	df 90       	pop	r13
    158c:	cf 90       	pop	r12
    158e:	bf 90       	pop	r11
    1590:	af 90       	pop	r10
    1592:	9f 90       	pop	r9
    1594:	8f 90       	pop	r8
    1596:	7f 90       	pop	r7
    1598:	6f 90       	pop	r6
    159a:	5f 90       	pop	r5
    159c:	4f 90       	pop	r4
    159e:	3f 90       	pop	r3
    15a0:	2f 90       	pop	r2
    15a2:	08 95       	ret

000015a4 <read_temp>:
    15a4:	81 e0       	ldi	r24, 0x01	; 1
    15a6:	90 e0       	ldi	r25, 0x00	; 0
    15a8:	08 95       	ret

000015aa <main>:
    15aa:	6f 92       	push	r6
    15ac:	7f 92       	push	r7
    15ae:	8f 92       	push	r8
    15b0:	9f 92       	push	r9
    15b2:	af 92       	push	r10
    15b4:	bf 92       	push	r11
    15b6:	cf 92       	push	r12
    15b8:	df 92       	push	r13
    15ba:	ef 92       	push	r14
    15bc:	ff 92       	push	r15
    15be:	0f 93       	push	r16
    15c0:	1f 93       	push	r17
    15c2:	df 93       	push	r29
    15c4:	cf 93       	push	r28
    15c6:	00 d0       	rcall	.+0      	; 0x15c8 <main+0x1e>
    15c8:	00 d0       	rcall	.+0      	; 0x15ca <main+0x20>
    15ca:	cd b7       	in	r28, 0x3d	; 61
    15cc:	de b7       	in	r29, 0x3e	; 62
    15ce:	0e 94 c1 08 	call	0x1182	; 0x1182 <TFT_init>
    15d2:	0e 94 56 0d 	call	0x1aac	; 0x1aac <touch_init>
    15d6:	8f ef       	ldi	r24, 0xFF	; 255
    15d8:	9f ef       	ldi	r25, 0xFF	; 255
    15da:	0e 94 13 08 	call	0x1026	; 0x1026 <TFT_fill>
    15de:	84 e6       	ldi	r24, 0x64	; 100
    15e0:	93 e0       	ldi	r25, 0x03	; 3
    15e2:	64 e4       	ldi	r22, 0x44	; 68
    15e4:	45 e0       	ldi	r20, 0x05	; 5
    15e6:	50 e0       	ldi	r21, 0x00	; 0
    15e8:	25 e0       	ldi	r18, 0x05	; 5
    15ea:	30 e0       	ldi	r19, 0x00	; 0
    15ec:	00 e0       	ldi	r16, 0x00	; 0
    15ee:	10 e0       	ldi	r17, 0x00	; 0
    15f0:	ee 24       	eor	r14, r14
    15f2:	ea 94       	dec	r14
    15f4:	fe 2c       	mov	r15, r14
    15f6:	b0 e1       	ldi	r27, 0x10	; 16
    15f8:	cb 2e       	mov	r12, r27
    15fa:	d1 2c       	mov	r13, r1
    15fc:	a0 e1       	ldi	r26, 0x10	; 16
    15fe:	aa 2e       	mov	r10, r26
    1600:	b1 2c       	mov	r11, r1
    1602:	0e 94 51 0a 	call	0x14a2	; 0x14a2 <TFT_char>
    1606:	84 e6       	ldi	r24, 0x64	; 100
    1608:	93 e0       	ldi	r25, 0x03	; 3
    160a:	6a e7       	ldi	r22, 0x7A	; 122
    160c:	46 e1       	ldi	r20, 0x16	; 22
    160e:	50 e0       	ldi	r21, 0x00	; 0
    1610:	25 e0       	ldi	r18, 0x05	; 5
    1612:	30 e0       	ldi	r19, 0x00	; 0
    1614:	0e 94 51 0a 	call	0x14a2	; 0x14a2 <TFT_char>
    1618:	84 e6       	ldi	r24, 0x64	; 100
    161a:	93 e0       	ldi	r25, 0x03	; 3
    161c:	69 e6       	ldi	r22, 0x69	; 105
    161e:	47 e2       	ldi	r20, 0x27	; 39
    1620:	50 e0       	ldi	r21, 0x00	; 0
    1622:	25 e0       	ldi	r18, 0x05	; 5
    1624:	30 e0       	ldi	r19, 0x00	; 0
    1626:	0e 94 51 0a 	call	0x14a2	; 0x14a2 <TFT_char>
    162a:	84 e6       	ldi	r24, 0x64	; 100
    162c:	93 e0       	ldi	r25, 0x03	; 3
    162e:	61 e6       	ldi	r22, 0x61	; 97
    1630:	48 e3       	ldi	r20, 0x38	; 56
    1632:	50 e0       	ldi	r21, 0x00	; 0
    1634:	25 e0       	ldi	r18, 0x05	; 5
    1636:	30 e0       	ldi	r19, 0x00	; 0
    1638:	0e 94 51 0a 	call	0x14a2	; 0x14a2 <TFT_char>
    163c:	84 e6       	ldi	r24, 0x64	; 100
    163e:	93 e0       	ldi	r25, 0x03	; 3
    1640:	6c e6       	ldi	r22, 0x6C	; 108
    1642:	49 e4       	ldi	r20, 0x49	; 73
    1644:	50 e0       	ldi	r21, 0x00	; 0
    1646:	25 e0       	ldi	r18, 0x05	; 5
    1648:	30 e0       	ldi	r19, 0x00	; 0
    164a:	0e 94 51 0a 	call	0x14a2	; 0x14a2 <TFT_char>
    164e:	84 e6       	ldi	r24, 0x64	; 100
    1650:	93 e0       	ldi	r25, 0x03	; 3
    1652:	61 e6       	ldi	r22, 0x61	; 97
    1654:	4a e5       	ldi	r20, 0x5A	; 90
    1656:	50 e0       	ldi	r21, 0x00	; 0
    1658:	25 e0       	ldi	r18, 0x05	; 5
    165a:	30 e0       	ldi	r19, 0x00	; 0
    165c:	0e 94 51 0a 	call	0x14a2	; 0x14a2 <TFT_char>
    1660:	84 e6       	ldi	r24, 0x64	; 100
    1662:	93 e0       	ldi	r25, 0x03	; 3
    1664:	60 e2       	ldi	r22, 0x20	; 32
    1666:	4b e6       	ldi	r20, 0x6B	; 107
    1668:	50 e0       	ldi	r21, 0x00	; 0
    166a:	25 e0       	ldi	r18, 0x05	; 5
    166c:	30 e0       	ldi	r19, 0x00	; 0
    166e:	0e 94 51 0a 	call	0x14a2	; 0x14a2 <TFT_char>
    1672:	84 e6       	ldi	r24, 0x64	; 100
    1674:	93 e0       	ldi	r25, 0x03	; 3
    1676:	6c e4       	ldi	r22, 0x4C	; 76
    1678:	4c e7       	ldi	r20, 0x7C	; 124
    167a:	50 e0       	ldi	r21, 0x00	; 0
    167c:	25 e0       	ldi	r18, 0x05	; 5
    167e:	30 e0       	ldi	r19, 0x00	; 0
    1680:	0e 94 51 0a 	call	0x14a2	; 0x14a2 <TFT_char>
    1684:	84 e6       	ldi	r24, 0x64	; 100
    1686:	93 e0       	ldi	r25, 0x03	; 3
    1688:	63 e4       	ldi	r22, 0x43	; 67
    168a:	4d e8       	ldi	r20, 0x8D	; 141
    168c:	50 e0       	ldi	r21, 0x00	; 0
    168e:	25 e0       	ldi	r18, 0x05	; 5
    1690:	30 e0       	ldi	r19, 0x00	; 0
    1692:	0e 94 51 0a 	call	0x14a2	; 0x14a2 <TFT_char>
    1696:	84 e6       	ldi	r24, 0x64	; 100
    1698:	93 e0       	ldi	r25, 0x03	; 3
    169a:	64 e4       	ldi	r22, 0x44	; 68
    169c:	4e e9       	ldi	r20, 0x9E	; 158
    169e:	50 e0       	ldi	r21, 0x00	; 0
    16a0:	25 e0       	ldi	r18, 0x05	; 5
    16a2:	30 e0       	ldi	r19, 0x00	; 0
    16a4:	0e 94 51 0a 	call	0x14a2	; 0x14a2 <TFT_char>
    16a8:	84 e6       	ldi	r24, 0x64	; 100
    16aa:	93 e0       	ldi	r25, 0x03	; 3
    16ac:	6b e3       	ldi	r22, 0x3B	; 59
    16ae:	4f ea       	ldi	r20, 0xAF	; 175
    16b0:	50 e0       	ldi	r21, 0x00	; 0
    16b2:	25 e0       	ldi	r18, 0x05	; 5
    16b4:	30 e0       	ldi	r19, 0x00	; 0
    16b6:	0e 94 51 0a 	call	0x14a2	; 0x14a2 <TFT_char>
    16ba:	84 e6       	ldi	r24, 0x64	; 100
    16bc:	93 e0       	ldi	r25, 0x03	; 3
    16be:	6f e6       	ldi	r22, 0x6F	; 111
    16c0:	40 ec       	ldi	r20, 0xC0	; 192
    16c2:	50 e0       	ldi	r21, 0x00	; 0
    16c4:	25 e0       	ldi	r18, 0x05	; 5
    16c6:	30 e0       	ldi	r19, 0x00	; 0
    16c8:	0e 94 51 0a 	call	0x14a2	; 0x14a2 <TFT_char>
    16cc:	84 e6       	ldi	r24, 0x64	; 100
    16ce:	93 e0       	ldi	r25, 0x03	; 3
    16d0:	6f e4       	ldi	r22, 0x4F	; 79
    16d2:	45 e0       	ldi	r20, 0x05	; 5
    16d4:	50 e0       	ldi	r21, 0x00	; 0
    16d6:	2e e1       	ldi	r18, 0x1E	; 30
    16d8:	30 e0       	ldi	r19, 0x00	; 0
    16da:	0e 94 51 0a 	call	0x14a2	; 0x14a2 <TFT_char>
    16de:	84 e6       	ldi	r24, 0x64	; 100
    16e0:	93 e0       	ldi	r25, 0x03	; 3
    16e2:	63 e7       	ldi	r22, 0x73	; 115
    16e4:	46 e1       	ldi	r20, 0x16	; 22
    16e6:	50 e0       	ldi	r21, 0x00	; 0
    16e8:	2e e1       	ldi	r18, 0x1E	; 30
    16ea:	30 e0       	ldi	r19, 0x00	; 0
    16ec:	0e 94 51 0a 	call	0x14a2	; 0x14a2 <TFT_char>
    16f0:	84 e6       	ldi	r24, 0x64	; 100
    16f2:	93 e0       	ldi	r25, 0x03	; 3
    16f4:	6b e6       	ldi	r22, 0x6B	; 107
    16f6:	47 e2       	ldi	r20, 0x27	; 39
    16f8:	50 e0       	ldi	r21, 0x00	; 0
    16fa:	2e e1       	ldi	r18, 0x1E	; 30
    16fc:	30 e0       	ldi	r19, 0x00	; 0
    16fe:	0e 94 51 0a 	call	0x14a2	; 0x14a2 <TFT_char>
    1702:	84 e6       	ldi	r24, 0x64	; 100
    1704:	93 e0       	ldi	r25, 0x03	; 3
    1706:	65 e7       	ldi	r22, 0x75	; 117
    1708:	48 e3       	ldi	r20, 0x38	; 56
    170a:	50 e0       	ldi	r21, 0x00	; 0
    170c:	2e e1       	ldi	r18, 0x1E	; 30
    170e:	30 e0       	ldi	r19, 0x00	; 0
    1710:	0e 94 51 0a 	call	0x14a2	; 0x14a2 <TFT_char>
    1714:	84 e6       	ldi	r24, 0x64	; 100
    1716:	93 e0       	ldi	r25, 0x03	; 3
    1718:	62 e7       	ldi	r22, 0x72	; 114
    171a:	49 e4       	ldi	r20, 0x49	; 73
    171c:	50 e0       	ldi	r21, 0x00	; 0
    171e:	2e e1       	ldi	r18, 0x1E	; 30
    1720:	30 e0       	ldi	r19, 0x00	; 0
    1722:	0e 94 51 0a 	call	0x14a2	; 0x14a2 <TFT_char>
    1726:	84 e6       	ldi	r24, 0x64	; 100
    1728:	93 e0       	ldi	r25, 0x03	; 3
    172a:	67 e7       	ldi	r22, 0x77	; 119
    172c:	4a e5       	ldi	r20, 0x5A	; 90
    172e:	50 e0       	ldi	r21, 0x00	; 0
    1730:	2e e1       	ldi	r18, 0x1E	; 30
    1732:	30 e0       	ldi	r19, 0x00	; 0
    1734:	0e 94 51 0a 	call	0x14a2	; 0x14a2 <TFT_char>
    1738:	84 e6       	ldi	r24, 0x64	; 100
    173a:	93 e0       	ldi	r25, 0x03	; 3
    173c:	65 e6       	ldi	r22, 0x65	; 101
    173e:	4b e6       	ldi	r20, 0x6B	; 107
    1740:	50 e0       	ldi	r21, 0x00	; 0
    1742:	2e e1       	ldi	r18, 0x1E	; 30
    1744:	30 e0       	ldi	r19, 0x00	; 0
    1746:	0e 94 51 0a 	call	0x14a2	; 0x14a2 <TFT_char>
    174a:	84 e6       	ldi	r24, 0x64	; 100
    174c:	93 e0       	ldi	r25, 0x03	; 3
    174e:	63 e7       	ldi	r22, 0x73	; 115
    1750:	4c e7       	ldi	r20, 0x7C	; 124
    1752:	50 e0       	ldi	r21, 0x00	; 0
    1754:	2e e1       	ldi	r18, 0x1E	; 30
    1756:	30 e0       	ldi	r19, 0x00	; 0
    1758:	0e 94 51 0a 	call	0x14a2	; 0x14a2 <TFT_char>
    175c:	84 e6       	ldi	r24, 0x64	; 100
    175e:	93 e0       	ldi	r25, 0x03	; 3
    1760:	69 e7       	ldi	r22, 0x79	; 121
    1762:	4d e8       	ldi	r20, 0x8D	; 141
    1764:	50 e0       	ldi	r21, 0x00	; 0
    1766:	2e e1       	ldi	r18, 0x1E	; 30
    1768:	30 e0       	ldi	r19, 0x00	; 0
    176a:	0e 94 51 0a 	call	0x14a2	; 0x14a2 <TFT_char>
    176e:	84 e6       	ldi	r24, 0x64	; 100
    1770:	93 e0       	ldi	r25, 0x03	; 3
    1772:	6e e6       	ldi	r22, 0x6E	; 110
    1774:	4e e9       	ldi	r20, 0x9E	; 158
    1776:	50 e0       	ldi	r21, 0x00	; 0
    1778:	2e e1       	ldi	r18, 0x1E	; 30
    177a:	30 e0       	ldi	r19, 0x00	; 0
    177c:	0e 94 51 0a 	call	0x14a2	; 0x14a2 <TFT_char>
    1780:	84 e6       	ldi	r24, 0x64	; 100
    1782:	93 e0       	ldi	r25, 0x03	; 3
    1784:	6a e3       	ldi	r22, 0x3A	; 58
    1786:	4f ea       	ldi	r20, 0xAF	; 175
    1788:	50 e0       	ldi	r21, 0x00	; 0
    178a:	2e e1       	ldi	r18, 0x1E	; 30
    178c:	30 e0       	ldi	r19, 0x00	; 0
    178e:	0e 94 51 0a 	call	0x14a2	; 0x14a2 <TFT_char>
    1792:	84 e6       	ldi	r24, 0x64	; 100
    1794:	93 e0       	ldi	r25, 0x03	; 3
    1796:	64 e4       	ldi	r22, 0x44	; 68
    1798:	40 ec       	ldi	r20, 0xC0	; 192
    179a:	50 e0       	ldi	r21, 0x00	; 0
    179c:	2e e1       	ldi	r18, 0x1E	; 30
    179e:	30 e0       	ldi	r19, 0x00	; 0
    17a0:	0e 94 51 0a 	call	0x14a2	; 0x14a2 <TFT_char>
    17a4:	f3 e0       	ldi	r31, 0x03	; 3
    17a6:	6f 2e       	mov	r6, r31
    17a8:	71 2c       	mov	r7, r1
    17aa:	6c 0e       	add	r6, r28
    17ac:	7d 1e       	adc	r7, r29
    17ae:	4e 01       	movw	r8, r28
    17b0:	08 94       	sec
    17b2:	81 1c       	adc	r8, r1
    17b4:	91 1c       	adc	r9, r1
    17b6:	0e 94 82 0e 	call	0x1d04	; 0x1d04 <touch_available>
    17ba:	88 23       	and	r24, r24
    17bc:	e1 f3       	breq	.-8      	; 0x17b6 <main+0x20c>
    17be:	c4 01       	movw	r24, r8
    17c0:	b3 01       	movw	r22, r6
    17c2:	0e 94 8a 0d 	call	0x1b14	; 0x1b14 <touch_read>
    17c6:	49 81       	ldd	r20, Y+1	; 0x01
    17c8:	5a 81       	ldd	r21, Y+2	; 0x02
    17ca:	8f ef       	ldi	r24, 0xFF	; 255
    17cc:	4f 3f       	cpi	r20, 0xFF	; 255
    17ce:	58 07       	cpc	r21, r24
    17d0:	91 f3       	breq	.-28     	; 0x17b6 <main+0x20c>
    17d2:	2b 81       	ldd	r18, Y+3	; 0x03
    17d4:	3c 81       	ldd	r19, Y+4	; 0x04
    17d6:	ef ef       	ldi	r30, 0xFF	; 255
    17d8:	2f 3f       	cpi	r18, 0xFF	; 255
    17da:	3e 07       	cpc	r19, r30
    17dc:	61 f3       	breq	.-40     	; 0x17b6 <main+0x20c>
    17de:	41 15       	cp	r20, r1
    17e0:	51 05       	cpc	r21, r1
    17e2:	19 f4       	brne	.+6      	; 0x17ea <main+0x240>
    17e4:	80 e0       	ldi	r24, 0x00	; 0
    17e6:	90 e0       	ldi	r25, 0x00	; 0
    17e8:	08 c0       	rjmp	.+16     	; 0x17fa <main+0x250>
    17ea:	ca 01       	movw	r24, r20
    17ec:	01 97       	sbiw	r24, 0x01	; 1
    17ee:	4f 3e       	cpi	r20, 0xEF	; 239
    17f0:	51 05       	cpc	r21, r1
    17f2:	18 f0       	brcs	.+6      	; 0x17fa <main+0x250>
    17f4:	4f ee       	ldi	r20, 0xEF	; 239
    17f6:	50 e0       	ldi	r21, 0x00	; 0
    17f8:	02 c0       	rjmp	.+4      	; 0x17fe <main+0x254>
    17fa:	4f 5f       	subi	r20, 0xFF	; 255
    17fc:	5f 4f       	sbci	r21, 0xFF	; 255
    17fe:	21 15       	cp	r18, r1
    1800:	31 05       	cpc	r19, r1
    1802:	19 f4       	brne	.+6      	; 0x180a <main+0x260>
    1804:	60 e0       	ldi	r22, 0x00	; 0
    1806:	70 e0       	ldi	r23, 0x00	; 0
    1808:	0a c0       	rjmp	.+20     	; 0x181e <main+0x274>
    180a:	b9 01       	movw	r22, r18
    180c:	61 50       	subi	r22, 0x01	; 1
    180e:	70 40       	sbci	r23, 0x00	; 0
    1810:	e1 e0       	ldi	r30, 0x01	; 1
    1812:	2f 33       	cpi	r18, 0x3F	; 63
    1814:	3e 07       	cpc	r19, r30
    1816:	18 f0       	brcs	.+6      	; 0x181e <main+0x274>
    1818:	2f e3       	ldi	r18, 0x3F	; 63
    181a:	31 e0       	ldi	r19, 0x01	; 1
    181c:	02 c0       	rjmp	.+4      	; 0x1822 <main+0x278>
    181e:	2f 5f       	subi	r18, 0xFF	; 255
    1820:	3f 4f       	sbci	r19, 0xFF	; 255
    1822:	0d e3       	ldi	r16, 0x3D	; 61
    1824:	10 e0       	ldi	r17, 0x00	; 0
    1826:	0e 94 33 08 	call	0x1066	; 0x1066 <TFT_draw_box>
    182a:	89 81       	ldd	r24, Y+1	; 0x01
    182c:	9a 81       	ldd	r25, Y+2	; 0x02
    182e:	03 97       	sbiw	r24, 0x03	; 3
    1830:	89 35       	cpi	r24, 0x59	; 89
    1832:	91 05       	cpc	r25, r1
    1834:	08 f0       	brcs	.+2      	; 0x1838 <main+0x28e>
    1836:	bf cf       	rjmp	.-130    	; 0x17b6 <main+0x20c>
    1838:	8b 81       	ldd	r24, Y+3	; 0x03
    183a:	9c 81       	ldd	r25, Y+4	; 0x04
    183c:	83 30       	cpi	r24, 0x03	; 3
    183e:	91 05       	cpc	r25, r1
    1840:	08 f4       	brcc	.+2      	; 0x1844 <main+0x29a>
    1842:	b9 cf       	rjmp	.-142    	; 0x17b6 <main+0x20c>
    1844:	48 97       	sbiw	r24, 0x18	; 24
    1846:	08 f0       	brcs	.+2      	; 0x184a <main+0x2a0>
    1848:	b6 cf       	rjmp	.-148    	; 0x17b6 <main+0x20c>
    184a:	8f ef       	ldi	r24, 0xFF	; 255
    184c:	9f ef       	ldi	r25, 0xFF	; 255
    184e:	0e 94 13 08 	call	0x1026	; 0x1026 <TFT_fill>
    1852:	82 e0       	ldi	r24, 0x02	; 2
    1854:	90 e0       	ldi	r25, 0x00	; 0
    1856:	62 e0       	ldi	r22, 0x02	; 2
    1858:	70 e0       	ldi	r23, 0x00	; 0
    185a:	4c e5       	ldi	r20, 0x5C	; 92
    185c:	50 e0       	ldi	r21, 0x00	; 0
    185e:	28 e1       	ldi	r18, 0x18	; 24
    1860:	30 e0       	ldi	r19, 0x00	; 0
    1862:	02 e0       	ldi	r16, 0x02	; 2
    1864:	10 e0       	ldi	r17, 0x00	; 0
    1866:	ee 24       	eor	r14, r14
    1868:	ff 24       	eor	r15, r15
    186a:	0e 94 69 08 	call	0x10d2	; 0x10d2 <TFT_box_outline>
    186e:	84 e6       	ldi	r24, 0x64	; 100
    1870:	93 e0       	ldi	r25, 0x03	; 3
    1872:	63 e4       	ldi	r22, 0x43	; 67
    1874:	45 e0       	ldi	r20, 0x05	; 5
    1876:	50 e0       	ldi	r21, 0x00	; 0
    1878:	25 e0       	ldi	r18, 0x05	; 5
    187a:	30 e0       	ldi	r19, 0x00	; 0
    187c:	00 e0       	ldi	r16, 0x00	; 0
    187e:	10 e0       	ldi	r17, 0x00	; 0
    1880:	ee 24       	eor	r14, r14
    1882:	ea 94       	dec	r14
    1884:	fe 2c       	mov	r15, r14
    1886:	e0 e1       	ldi	r30, 0x10	; 16
    1888:	ce 2e       	mov	r12, r30
    188a:	d1 2c       	mov	r13, r1
    188c:	70 e1       	ldi	r23, 0x10	; 16
    188e:	a7 2e       	mov	r10, r23
    1890:	b1 2c       	mov	r11, r1
    1892:	0e 94 51 0a 	call	0x14a2	; 0x14a2 <TFT_char>
    1896:	84 e6       	ldi	r24, 0x64	; 100
    1898:	93 e0       	ldi	r25, 0x03	; 3
    189a:	6c e6       	ldi	r22, 0x6C	; 108
    189c:	46 e1       	ldi	r20, 0x16	; 22
    189e:	50 e0       	ldi	r21, 0x00	; 0
    18a0:	25 e0       	ldi	r18, 0x05	; 5
    18a2:	30 e0       	ldi	r19, 0x00	; 0
    18a4:	0e 94 51 0a 	call	0x14a2	; 0x14a2 <TFT_char>
    18a8:	84 e6       	ldi	r24, 0x64	; 100
    18aa:	93 e0       	ldi	r25, 0x03	; 3
    18ac:	65 e6       	ldi	r22, 0x65	; 101
    18ae:	47 e2       	ldi	r20, 0x27	; 39
    18b0:	50 e0       	ldi	r21, 0x00	; 0
    18b2:	25 e0       	ldi	r18, 0x05	; 5
    18b4:	30 e0       	ldi	r19, 0x00	; 0
    18b6:	0e 94 51 0a 	call	0x14a2	; 0x14a2 <TFT_char>
    18ba:	84 e6       	ldi	r24, 0x64	; 100
    18bc:	93 e0       	ldi	r25, 0x03	; 3
    18be:	61 e6       	ldi	r22, 0x61	; 97
    18c0:	48 e3       	ldi	r20, 0x38	; 56
    18c2:	50 e0       	ldi	r21, 0x00	; 0
    18c4:	25 e0       	ldi	r18, 0x05	; 5
    18c6:	30 e0       	ldi	r19, 0x00	; 0
    18c8:	0e 94 51 0a 	call	0x14a2	; 0x14a2 <TFT_char>
    18cc:	84 e6       	ldi	r24, 0x64	; 100
    18ce:	93 e0       	ldi	r25, 0x03	; 3
    18d0:	62 e7       	ldi	r22, 0x72	; 114
    18d2:	49 e4       	ldi	r20, 0x49	; 73
    18d4:	50 e0       	ldi	r21, 0x00	; 0
    18d6:	25 e0       	ldi	r18, 0x05	; 5
    18d8:	30 e0       	ldi	r19, 0x00	; 0
    18da:	0e 94 51 0a 	call	0x14a2	; 0x14a2 <TFT_char>
    18de:	6b cf       	rjmp	.-298    	; 0x17b6 <main+0x20c>

000018e0 <TFT_pattern2>:
    18e0:	cf 93       	push	r28
    18e2:	df 93       	push	r29
    18e4:	97 98       	cbi	0x12, 7	; 18
    18e6:	80 e0       	ldi	r24, 0x00	; 0
    18e8:	90 e0       	ldi	r25, 0x00	; 0
    18ea:	60 e0       	ldi	r22, 0x00	; 0
    18ec:	70 e0       	ldi	r23, 0x00	; 0
    18ee:	4f ee       	ldi	r20, 0xEF	; 239
    18f0:	50 e0       	ldi	r21, 0x00	; 0
    18f2:	2f e3       	ldi	r18, 0x3F	; 63
    18f4:	31 e0       	ldi	r19, 0x01	; 1
    18f6:	0e 94 e3 07 	call	0xfc6	; 0xfc6 <TFT_write_address>
    18fa:	c0 e0       	ldi	r28, 0x00	; 0
    18fc:	d0 e0       	ldi	r29, 0x00	; 0
    18fe:	8f ef       	ldi	r24, 0xFF	; 255
    1900:	90 e0       	ldi	r25, 0x00	; 0
    1902:	0e 94 c7 07 	call	0xf8e	; 0xf8e <TFT_write_data>
    1906:	80 e0       	ldi	r24, 0x00	; 0
    1908:	9f ef       	ldi	r25, 0xFF	; 255
    190a:	0e 94 c7 07 	call	0xf8e	; 0xf8e <TFT_write_data>
    190e:	21 96       	adiw	r28, 0x01	; 1
    1910:	86 e9       	ldi	r24, 0x96	; 150
    1912:	c1 30       	cpi	r28, 0x01	; 1
    1914:	d8 07       	cpc	r29, r24
    1916:	99 f7       	brne	.-26     	; 0x18fe <TFT_pattern2+0x1e>
    1918:	97 9a       	sbi	0x12, 7	; 18
    191a:	94 9a       	sbi	0x12, 4	; 18
    191c:	df 91       	pop	r29
    191e:	cf 91       	pop	r28
    1920:	08 95       	ret

00001922 <TFT_pattern1>:
    1922:	cf 93       	push	r28
    1924:	df 93       	push	r29
    1926:	97 98       	cbi	0x12, 7	; 18
    1928:	80 e0       	ldi	r24, 0x00	; 0
    192a:	90 e0       	ldi	r25, 0x00	; 0
    192c:	60 e0       	ldi	r22, 0x00	; 0
    192e:	70 e0       	ldi	r23, 0x00	; 0
    1930:	4f ee       	ldi	r20, 0xEF	; 239
    1932:	50 e0       	ldi	r21, 0x00	; 0
    1934:	2f e3       	ldi	r18, 0x3F	; 63
    1936:	31 e0       	ldi	r19, 0x01	; 1
    1938:	0e 94 e3 07 	call	0xfc6	; 0xfc6 <TFT_write_address>
    193c:	c0 e0       	ldi	r28, 0x00	; 0
    193e:	d0 e0       	ldi	r29, 0x00	; 0
    1940:	80 e0       	ldi	r24, 0x00	; 0
    1942:	9f ef       	ldi	r25, 0xFF	; 255
    1944:	0e 94 c7 07 	call	0xf8e	; 0xf8e <TFT_write_data>
    1948:	8f ef       	ldi	r24, 0xFF	; 255
    194a:	90 e0       	ldi	r25, 0x00	; 0
    194c:	0e 94 c7 07 	call	0xf8e	; 0xf8e <TFT_write_data>
    1950:	21 96       	adiw	r28, 0x01	; 1
    1952:	86 e9       	ldi	r24, 0x96	; 150
    1954:	c1 30       	cpi	r28, 0x01	; 1
    1956:	d8 07       	cpc	r29, r24
    1958:	99 f7       	brne	.-26     	; 0x1940 <TFT_pattern1+0x1e>
    195a:	97 9a       	sbi	0x12, 7	; 18
    195c:	94 9a       	sbi	0x12, 4	; 18
    195e:	df 91       	pop	r29
    1960:	cf 91       	pop	r28
    1962:	08 95       	ret

00001964 <shift_out>:
    1964:	97 fd       	sbrc	r25, 7
    1966:	51 c0       	rjmp	.+162    	; 0x1a0a <shift_out+0xa6>
    1968:	5a 98       	cbi	0x0b, 2	; 11
    196a:	5c 9a       	sbi	0x0b, 4	; 11
    196c:	5c 98       	cbi	0x0b, 4	; 11
    196e:	96 fd       	sbrc	r25, 6
    1970:	51 c0       	rjmp	.+162    	; 0x1a14 <shift_out+0xb0>
    1972:	5a 98       	cbi	0x0b, 2	; 11
    1974:	5c 9a       	sbi	0x0b, 4	; 11
    1976:	5c 98       	cbi	0x0b, 4	; 11
    1978:	95 fd       	sbrc	r25, 5
    197a:	51 c0       	rjmp	.+162    	; 0x1a1e <shift_out+0xba>
    197c:	5a 98       	cbi	0x0b, 2	; 11
    197e:	5c 9a       	sbi	0x0b, 4	; 11
    1980:	5c 98       	cbi	0x0b, 4	; 11
    1982:	94 fd       	sbrc	r25, 4
    1984:	51 c0       	rjmp	.+162    	; 0x1a28 <shift_out+0xc4>
    1986:	5a 98       	cbi	0x0b, 2	; 11
    1988:	5c 9a       	sbi	0x0b, 4	; 11
    198a:	5c 98       	cbi	0x0b, 4	; 11
    198c:	93 fd       	sbrc	r25, 3
    198e:	51 c0       	rjmp	.+162    	; 0x1a32 <shift_out+0xce>
    1990:	5a 98       	cbi	0x0b, 2	; 11
    1992:	5c 9a       	sbi	0x0b, 4	; 11
    1994:	5c 98       	cbi	0x0b, 4	; 11
    1996:	92 fd       	sbrc	r25, 2
    1998:	51 c0       	rjmp	.+162    	; 0x1a3c <shift_out+0xd8>
    199a:	5a 98       	cbi	0x0b, 2	; 11
    199c:	5c 9a       	sbi	0x0b, 4	; 11
    199e:	5c 98       	cbi	0x0b, 4	; 11
    19a0:	91 fd       	sbrc	r25, 1
    19a2:	51 c0       	rjmp	.+162    	; 0x1a46 <shift_out+0xe2>
    19a4:	5a 98       	cbi	0x0b, 2	; 11
    19a6:	5c 9a       	sbi	0x0b, 4	; 11
    19a8:	5c 98       	cbi	0x0b, 4	; 11
    19aa:	90 fd       	sbrc	r25, 0
    19ac:	51 c0       	rjmp	.+162    	; 0x1a50 <shift_out+0xec>
    19ae:	5a 98       	cbi	0x0b, 2	; 11
    19b0:	5c 9a       	sbi	0x0b, 4	; 11
    19b2:	5c 98       	cbi	0x0b, 4	; 11
    19b4:	87 fd       	sbrc	r24, 7
    19b6:	51 c0       	rjmp	.+162    	; 0x1a5a <shift_out+0xf6>
    19b8:	5a 98       	cbi	0x0b, 2	; 11
    19ba:	5c 9a       	sbi	0x0b, 4	; 11
    19bc:	5c 98       	cbi	0x0b, 4	; 11
    19be:	86 fd       	sbrc	r24, 6
    19c0:	51 c0       	rjmp	.+162    	; 0x1a64 <shift_out+0x100>
    19c2:	5a 98       	cbi	0x0b, 2	; 11
    19c4:	5c 9a       	sbi	0x0b, 4	; 11
    19c6:	5c 98       	cbi	0x0b, 4	; 11
    19c8:	85 fd       	sbrc	r24, 5
    19ca:	51 c0       	rjmp	.+162    	; 0x1a6e <shift_out+0x10a>
    19cc:	5a 98       	cbi	0x0b, 2	; 11
    19ce:	5c 9a       	sbi	0x0b, 4	; 11
    19d0:	5c 98       	cbi	0x0b, 4	; 11
    19d2:	84 fd       	sbrc	r24, 4
    19d4:	51 c0       	rjmp	.+162    	; 0x1a78 <shift_out+0x114>
    19d6:	5a 98       	cbi	0x0b, 2	; 11
    19d8:	5c 9a       	sbi	0x0b, 4	; 11
    19da:	5c 98       	cbi	0x0b, 4	; 11
    19dc:	83 fd       	sbrc	r24, 3
    19de:	51 c0       	rjmp	.+162    	; 0x1a82 <shift_out+0x11e>
    19e0:	5a 98       	cbi	0x0b, 2	; 11
    19e2:	5c 9a       	sbi	0x0b, 4	; 11
    19e4:	5c 98       	cbi	0x0b, 4	; 11
    19e6:	82 fd       	sbrc	r24, 2
    19e8:	51 c0       	rjmp	.+162    	; 0x1a8c <shift_out+0x128>
    19ea:	5a 98       	cbi	0x0b, 2	; 11
    19ec:	5c 9a       	sbi	0x0b, 4	; 11
    19ee:	5c 98       	cbi	0x0b, 4	; 11
    19f0:	81 fd       	sbrc	r24, 1
    19f2:	51 c0       	rjmp	.+162    	; 0x1a96 <shift_out+0x132>
    19f4:	5a 98       	cbi	0x0b, 2	; 11
    19f6:	5c 9a       	sbi	0x0b, 4	; 11
    19f8:	5c 98       	cbi	0x0b, 4	; 11
    19fa:	80 ff       	sbrs	r24, 0
    19fc:	51 c0       	rjmp	.+162    	; 0x1aa0 <shift_out+0x13c>
    19fe:	5a 9a       	sbi	0x0b, 2	; 11
    1a00:	5c 9a       	sbi	0x0b, 4	; 11
    1a02:	5c 98       	cbi	0x0b, 4	; 11
    1a04:	5b 9a       	sbi	0x0b, 3	; 11
    1a06:	5b 98       	cbi	0x0b, 3	; 11
    1a08:	08 95       	ret
    1a0a:	5a 9a       	sbi	0x0b, 2	; 11
    1a0c:	5c 9a       	sbi	0x0b, 4	; 11
    1a0e:	5c 98       	cbi	0x0b, 4	; 11
    1a10:	96 ff       	sbrs	r25, 6
    1a12:	af cf       	rjmp	.-162    	; 0x1972 <shift_out+0xe>
    1a14:	5a 9a       	sbi	0x0b, 2	; 11
    1a16:	5c 9a       	sbi	0x0b, 4	; 11
    1a18:	5c 98       	cbi	0x0b, 4	; 11
    1a1a:	95 ff       	sbrs	r25, 5
    1a1c:	af cf       	rjmp	.-162    	; 0x197c <shift_out+0x18>
    1a1e:	5a 9a       	sbi	0x0b, 2	; 11
    1a20:	5c 9a       	sbi	0x0b, 4	; 11
    1a22:	5c 98       	cbi	0x0b, 4	; 11
    1a24:	94 ff       	sbrs	r25, 4
    1a26:	af cf       	rjmp	.-162    	; 0x1986 <shift_out+0x22>
    1a28:	5a 9a       	sbi	0x0b, 2	; 11
    1a2a:	5c 9a       	sbi	0x0b, 4	; 11
    1a2c:	5c 98       	cbi	0x0b, 4	; 11
    1a2e:	93 ff       	sbrs	r25, 3
    1a30:	af cf       	rjmp	.-162    	; 0x1990 <shift_out+0x2c>
    1a32:	5a 9a       	sbi	0x0b, 2	; 11
    1a34:	5c 9a       	sbi	0x0b, 4	; 11
    1a36:	5c 98       	cbi	0x0b, 4	; 11
    1a38:	92 ff       	sbrs	r25, 2
    1a3a:	af cf       	rjmp	.-162    	; 0x199a <shift_out+0x36>
    1a3c:	5a 9a       	sbi	0x0b, 2	; 11
    1a3e:	5c 9a       	sbi	0x0b, 4	; 11
    1a40:	5c 98       	cbi	0x0b, 4	; 11
    1a42:	91 ff       	sbrs	r25, 1
    1a44:	af cf       	rjmp	.-162    	; 0x19a4 <shift_out+0x40>
    1a46:	5a 9a       	sbi	0x0b, 2	; 11
    1a48:	5c 9a       	sbi	0x0b, 4	; 11
    1a4a:	5c 98       	cbi	0x0b, 4	; 11
    1a4c:	90 ff       	sbrs	r25, 0
    1a4e:	af cf       	rjmp	.-162    	; 0x19ae <shift_out+0x4a>
    1a50:	5a 9a       	sbi	0x0b, 2	; 11
    1a52:	5c 9a       	sbi	0x0b, 4	; 11
    1a54:	5c 98       	cbi	0x0b, 4	; 11
    1a56:	87 ff       	sbrs	r24, 7
    1a58:	af cf       	rjmp	.-162    	; 0x19b8 <shift_out+0x54>
    1a5a:	5a 9a       	sbi	0x0b, 2	; 11
    1a5c:	5c 9a       	sbi	0x0b, 4	; 11
    1a5e:	5c 98       	cbi	0x0b, 4	; 11
    1a60:	86 ff       	sbrs	r24, 6
    1a62:	af cf       	rjmp	.-162    	; 0x19c2 <shift_out+0x5e>
    1a64:	5a 9a       	sbi	0x0b, 2	; 11
    1a66:	5c 9a       	sbi	0x0b, 4	; 11
    1a68:	5c 98       	cbi	0x0b, 4	; 11
    1a6a:	85 ff       	sbrs	r24, 5
    1a6c:	af cf       	rjmp	.-162    	; 0x19cc <shift_out+0x68>
    1a6e:	5a 9a       	sbi	0x0b, 2	; 11
    1a70:	5c 9a       	sbi	0x0b, 4	; 11
    1a72:	5c 98       	cbi	0x0b, 4	; 11
    1a74:	84 ff       	sbrs	r24, 4
    1a76:	af cf       	rjmp	.-162    	; 0x19d6 <shift_out+0x72>
    1a78:	5a 9a       	sbi	0x0b, 2	; 11
    1a7a:	5c 9a       	sbi	0x0b, 4	; 11
    1a7c:	5c 98       	cbi	0x0b, 4	; 11
    1a7e:	83 ff       	sbrs	r24, 3
    1a80:	af cf       	rjmp	.-162    	; 0x19e0 <shift_out+0x7c>
    1a82:	5a 9a       	sbi	0x0b, 2	; 11
    1a84:	5c 9a       	sbi	0x0b, 4	; 11
    1a86:	5c 98       	cbi	0x0b, 4	; 11
    1a88:	82 ff       	sbrs	r24, 2
    1a8a:	af cf       	rjmp	.-162    	; 0x19ea <shift_out+0x86>
    1a8c:	5a 9a       	sbi	0x0b, 2	; 11
    1a8e:	5c 9a       	sbi	0x0b, 4	; 11
    1a90:	5c 98       	cbi	0x0b, 4	; 11
    1a92:	81 ff       	sbrs	r24, 1
    1a94:	af cf       	rjmp	.-162    	; 0x19f4 <shift_out+0x90>
    1a96:	5a 9a       	sbi	0x0b, 2	; 11
    1a98:	5c 9a       	sbi	0x0b, 4	; 11
    1a9a:	5c 98       	cbi	0x0b, 4	; 11
    1a9c:	80 fd       	sbrc	r24, 0
    1a9e:	af cf       	rjmp	.-162    	; 0x19fe <shift_out+0x9a>
    1aa0:	5a 98       	cbi	0x0b, 2	; 11
    1aa2:	5c 9a       	sbi	0x0b, 4	; 11
    1aa4:	5c 98       	cbi	0x0b, 4	; 11
    1aa6:	5b 9a       	sbi	0x0b, 3	; 11
    1aa8:	5b 98       	cbi	0x0b, 3	; 11
    1aaa:	08 95       	ret

00001aac <touch_init>:
    1aac:	88 b3       	in	r24, 0x18	; 24
    1aae:	83 60       	ori	r24, 0x03	; 3
    1ab0:	88 bb       	out	0x18, r24	; 24
    1ab2:	87 b3       	in	r24, 0x17	; 23
    1ab4:	83 60       	ori	r24, 0x03	; 3
    1ab6:	87 bb       	out	0x17, r24	; 23
    1ab8:	08 95       	ret

00001aba <touch_write_data>:
    1aba:	48 2f       	mov	r20, r24
    1abc:	c0 98       	cbi	0x18, 0	; 24
    1abe:	90 e8       	ldi	r25, 0x80	; 128
    1ac0:	20 e0       	ldi	r18, 0x00	; 0
    1ac2:	30 e0       	ldi	r19, 0x00	; 0
    1ac4:	89 2f       	mov	r24, r25
    1ac6:	84 23       	and	r24, r20
    1ac8:	11 f0       	breq	.+4      	; 0x1ace <touch_write_data+0x14>
    1aca:	c1 9a       	sbi	0x18, 1	; 24
    1acc:	01 c0       	rjmp	.+2      	; 0x1ad0 <touch_write_data+0x16>
    1ace:	c1 98       	cbi	0x18, 1	; 24
    1ad0:	c0 98       	cbi	0x18, 0	; 24
    1ad2:	00 00       	nop
    1ad4:	00 00       	nop
    1ad6:	00 00       	nop
    1ad8:	c0 9a       	sbi	0x18, 0	; 24
    1ada:	00 00       	nop
    1adc:	00 00       	nop
    1ade:	00 00       	nop
    1ae0:	96 95       	lsr	r25
    1ae2:	2f 5f       	subi	r18, 0xFF	; 255
    1ae4:	3f 4f       	sbci	r19, 0xFF	; 255
    1ae6:	28 30       	cpi	r18, 0x08	; 8
    1ae8:	31 05       	cpc	r19, r1
    1aea:	61 f7       	brne	.-40     	; 0x1ac4 <touch_write_data+0xa>
    1aec:	08 95       	ret

00001aee <touch_read_data>:
    1aee:	20 e0       	ldi	r18, 0x00	; 0
    1af0:	30 e0       	ldi	r19, 0x00	; 0
    1af2:	8c e0       	ldi	r24, 0x0C	; 12
    1af4:	c0 9a       	sbi	0x18, 0	; 24
    1af6:	00 00       	nop
    1af8:	00 00       	nop
    1afa:	00 00       	nop
    1afc:	c0 98       	cbi	0x18, 0	; 24
    1afe:	00 00       	nop
    1b00:	00 00       	nop
    1b02:	00 00       	nop
    1b04:	b3 99       	sbic	0x16, 3	; 22
    1b06:	21 60       	ori	r18, 0x01	; 1
    1b08:	22 0f       	add	r18, r18
    1b0a:	33 1f       	adc	r19, r19
    1b0c:	81 50       	subi	r24, 0x01	; 1
    1b0e:	91 f7       	brne	.-28     	; 0x1af4 <touch_read_data+0x6>
    1b10:	c9 01       	movw	r24, r18
    1b12:	08 95       	ret

00001b14 <touch_read>:
    1b14:	2f 92       	push	r2
    1b16:	3f 92       	push	r3
    1b18:	4f 92       	push	r4
    1b1a:	5f 92       	push	r5
    1b1c:	6f 92       	push	r6
    1b1e:	7f 92       	push	r7
    1b20:	8f 92       	push	r8
    1b22:	9f 92       	push	r9
    1b24:	af 92       	push	r10
    1b26:	bf 92       	push	r11
    1b28:	cf 92       	push	r12
    1b2a:	df 92       	push	r13
    1b2c:	ef 92       	push	r14
    1b2e:	ff 92       	push	r15
    1b30:	0f 93       	push	r16
    1b32:	1f 93       	push	r17
    1b34:	cf 93       	push	r28
    1b36:	df 93       	push	r29
    1b38:	ec 01       	movw	r28, r24
    1b3a:	1b 01       	movw	r2, r22
    1b3c:	88 24       	eor	r8, r8
    1b3e:	99 24       	eor	r9, r9
    1b40:	54 01       	movw	r10, r8
    1b42:	44 24       	eor	r4, r4
    1b44:	55 24       	eor	r5, r5
    1b46:	32 01       	movw	r6, r4
    1b48:	10 e0       	ldi	r17, 0x00	; 0
    1b4a:	0a e0       	ldi	r16, 0x0A	; 10
    1b4c:	80 e9       	ldi	r24, 0x90	; 144
    1b4e:	0e 94 5d 0d 	call	0x1aba	; 0x1aba <touch_write_data>
    1b52:	c0 9a       	sbi	0x18, 0	; 24
    1b54:	00 00       	nop
    1b56:	00 00       	nop
    1b58:	c0 98       	cbi	0x18, 0	; 24
    1b5a:	00 00       	nop
    1b5c:	00 00       	nop
    1b5e:	0e 94 77 0d 	call	0x1aee	; 0x1aee <touch_read_data>
    1b62:	6c 01       	movw	r12, r24
    1b64:	80 ed       	ldi	r24, 0xD0	; 208
    1b66:	0e 94 5d 0d 	call	0x1aba	; 0x1aba <touch_write_data>
    1b6a:	c0 9a       	sbi	0x18, 0	; 24
    1b6c:	00 00       	nop
    1b6e:	00 00       	nop
    1b70:	c0 98       	cbi	0x18, 0	; 24
    1b72:	00 00       	nop
    1b74:	00 00       	nop
    1b76:	0e 94 77 0d 	call	0x1aee	; 0x1aee <touch_read_data>
    1b7a:	c1 14       	cp	r12, r1
    1b7c:	d1 04       	cpc	r13, r1
    1b7e:	f9 f0       	breq	.+62     	; 0x1bbe <touch_read+0xaa>
    1b80:	9c 01       	movw	r18, r24
    1b82:	00 97       	sbiw	r24, 0x00	; 0
    1b84:	e1 f0       	breq	.+56     	; 0x1bbe <touch_read+0xaa>
    1b86:	80 e1       	ldi	r24, 0x10	; 16
    1b88:	c8 16       	cp	r12, r24
    1b8a:	8f e1       	ldi	r24, 0x1F	; 31
    1b8c:	d8 06       	cpc	r13, r24
    1b8e:	bc f4       	brge	.+46     	; 0x1bbe <touch_read+0xaa>
    1b90:	9e e1       	ldi	r25, 0x1E	; 30
    1b92:	26 3e       	cpi	r18, 0xE6	; 230
    1b94:	39 07       	cpc	r19, r25
    1b96:	9c f4       	brge	.+38     	; 0x1bbe <touch_read+0xaa>
    1b98:	c6 01       	movw	r24, r12
    1b9a:	aa 27       	eor	r26, r26
    1b9c:	97 fd       	sbrc	r25, 7
    1b9e:	a0 95       	com	r26
    1ba0:	ba 2f       	mov	r27, r26
    1ba2:	48 0e       	add	r4, r24
    1ba4:	59 1e       	adc	r5, r25
    1ba6:	6a 1e       	adc	r6, r26
    1ba8:	7b 1e       	adc	r7, r27
    1baa:	c9 01       	movw	r24, r18
    1bac:	aa 27       	eor	r26, r26
    1bae:	97 fd       	sbrc	r25, 7
    1bb0:	a0 95       	com	r26
    1bb2:	ba 2f       	mov	r27, r26
    1bb4:	88 0e       	add	r8, r24
    1bb6:	99 1e       	adc	r9, r25
    1bb8:	aa 1e       	adc	r10, r26
    1bba:	bb 1e       	adc	r11, r27
    1bbc:	1f 5f       	subi	r17, 0xFF	; 255
    1bbe:	01 50       	subi	r16, 0x01	; 1
    1bc0:	09 f0       	breq	.+2      	; 0x1bc4 <touch_read+0xb0>
    1bc2:	c4 cf       	rjmp	.-120    	; 0x1b4c <touch_read+0x38>
    1bc4:	11 23       	and	r17, r17
    1bc6:	09 f4       	brne	.+2      	; 0x1bca <touch_read+0xb6>
    1bc8:	83 c0       	rjmp	.+262    	; 0x1cd0 <touch_read+0x1bc>
    1bca:	e1 2e       	mov	r14, r17
    1bcc:	ff 24       	eor	r15, r15
    1bce:	e7 fc       	sbrc	r14, 7
    1bd0:	f0 94       	com	r15
    1bd2:	0f 2d       	mov	r16, r15
    1bd4:	1f 2d       	mov	r17, r15
    1bd6:	c5 01       	movw	r24, r10
    1bd8:	b4 01       	movw	r22, r8
    1bda:	a8 01       	movw	r20, r16
    1bdc:	97 01       	movw	r18, r14
    1bde:	0e 94 c4 0e 	call	0x1d88	; 0x1d88 <__divmodsi4>
    1be2:	59 01       	movw	r10, r18
    1be4:	6a 01       	movw	r12, r20
    1be6:	c3 01       	movw	r24, r6
    1be8:	b2 01       	movw	r22, r4
    1bea:	a8 01       	movw	r20, r16
    1bec:	97 01       	movw	r18, r14
    1bee:	0e 94 c4 0e 	call	0x1d88	; 0x1d88 <__divmodsi4>
    1bf2:	79 01       	movw	r14, r18
    1bf4:	8a 01       	movw	r16, r20
    1bf6:	80 e6       	ldi	r24, 0x60	; 96
    1bf8:	9e ef       	ldi	r25, 0xFE	; 254
    1bfa:	af ef       	ldi	r26, 0xFF	; 255
    1bfc:	bf ef       	ldi	r27, 0xFF	; 255
    1bfe:	a8 0e       	add	r10, r24
    1c00:	b9 1e       	adc	r11, r25
    1c02:	ca 1e       	adc	r12, r26
    1c04:	db 1e       	adc	r13, r27
    1c06:	8d e5       	ldi	r24, 0x5D	; 93
    1c08:	9d ef       	ldi	r25, 0xFD	; 253
    1c0a:	af ef       	ldi	r26, 0xFF	; 255
    1c0c:	bf ef       	ldi	r27, 0xFF	; 255
    1c0e:	e8 0e       	add	r14, r24
    1c10:	f9 1e       	adc	r15, r25
    1c12:	0a 1f       	adc	r16, r26
    1c14:	1b 1f       	adc	r17, r27
    1c16:	c6 01       	movw	r24, r12
    1c18:	b5 01       	movw	r22, r10
    1c1a:	20 ef       	ldi	r18, 0xF0	; 240
    1c1c:	30 e0       	ldi	r19, 0x00	; 0
    1c1e:	40 e0       	ldi	r20, 0x00	; 0
    1c20:	50 e0       	ldi	r21, 0x00	; 0
    1c22:	0e 94 a5 0e 	call	0x1d4a	; 0x1d4a <__mulsi3>
    1c26:	20 e7       	ldi	r18, 0x70	; 112
    1c28:	3d e1       	ldi	r19, 0x1D	; 29
    1c2a:	40 e0       	ldi	r20, 0x00	; 0
    1c2c:	50 e0       	ldi	r21, 0x00	; 0
    1c2e:	0e 94 c4 0e 	call	0x1d88	; 0x1d88 <__divmodsi4>
    1c32:	d2 2e       	mov	r13, r18
    1c34:	c3 2e       	mov	r12, r19
    1c36:	b4 2e       	mov	r11, r20
    1c38:	a5 2e       	mov	r10, r21
    1c3a:	c8 01       	movw	r24, r16
    1c3c:	b7 01       	movw	r22, r14
    1c3e:	20 e4       	ldi	r18, 0x40	; 64
    1c40:	31 e0       	ldi	r19, 0x01	; 1
    1c42:	40 e0       	ldi	r20, 0x00	; 0
    1c44:	50 e0       	ldi	r21, 0x00	; 0
    1c46:	0e 94 a5 0e 	call	0x1d4a	; 0x1d4a <__mulsi3>
    1c4a:	23 e4       	ldi	r18, 0x43	; 67
    1c4c:	3c e1       	ldi	r19, 0x1C	; 28
    1c4e:	40 e0       	ldi	r20, 0x00	; 0
    1c50:	50 e0       	ldi	r21, 0x00	; 0
    1c52:	0e 94 c4 0e 	call	0x1d88	; 0x1d88 <__divmodsi4>
    1c56:	b9 01       	movw	r22, r18
    1c58:	fa 01       	movw	r30, r20
    1c5a:	2d 2d       	mov	r18, r13
    1c5c:	3c 2d       	mov	r19, r12
    1c5e:	4b 2d       	mov	r20, r11
    1c60:	5a 2d       	mov	r21, r10
    1c62:	c9 01       	movw	r24, r18
    1c64:	da 01       	movw	r26, r20
    1c66:	5c 01       	movw	r10, r24
    1c68:	6d 01       	movw	r12, r26
    1c6a:	90 ef       	ldi	r25, 0xF0	; 240
    1c6c:	a9 16       	cp	r10, r25
    1c6e:	b1 04       	cpc	r11, r1
    1c70:	c1 04       	cpc	r12, r1
    1c72:	d1 04       	cpc	r13, r1
    1c74:	2c f0       	brlt	.+10     	; 0x1c80 <touch_read+0x16c>
    1c76:	2f ee       	ldi	r18, 0xEF	; 239
    1c78:	a2 2e       	mov	r10, r18
    1c7a:	b1 2c       	mov	r11, r1
    1c7c:	c1 2c       	mov	r12, r1
    1c7e:	d1 2c       	mov	r13, r1
    1c80:	cb 01       	movw	r24, r22
    1c82:	df 01       	movw	r26, r30
    1c84:	9c 01       	movw	r18, r24
    1c86:	ad 01       	movw	r20, r26
    1c88:	20 34       	cpi	r18, 0x40	; 64
    1c8a:	a1 e0       	ldi	r26, 0x01	; 1
    1c8c:	3a 07       	cpc	r19, r26
    1c8e:	a0 e0       	ldi	r26, 0x00	; 0
    1c90:	4a 07       	cpc	r20, r26
    1c92:	a0 e0       	ldi	r26, 0x00	; 0
    1c94:	5a 07       	cpc	r21, r26
    1c96:	24 f0       	brlt	.+8      	; 0x1ca0 <touch_read+0x18c>
    1c98:	2f e3       	ldi	r18, 0x3F	; 63
    1c9a:	31 e0       	ldi	r19, 0x01	; 1
    1c9c:	40 e0       	ldi	r20, 0x00	; 0
    1c9e:	50 e0       	ldi	r21, 0x00	; 0
    1ca0:	d6 01       	movw	r26, r12
    1ca2:	c5 01       	movw	r24, r10
    1ca4:	d7 fe       	sbrs	r13, 7
    1ca6:	04 c0       	rjmp	.+8      	; 0x1cb0 <touch_read+0x19c>
    1ca8:	80 e0       	ldi	r24, 0x00	; 0
    1caa:	90 e0       	ldi	r25, 0x00	; 0
    1cac:	a0 e0       	ldi	r26, 0x00	; 0
    1cae:	b0 e0       	ldi	r27, 0x00	; 0
    1cb0:	99 83       	std	Y+1, r25	; 0x01
    1cb2:	88 83       	st	Y, r24
    1cb4:	57 ff       	sbrs	r21, 7
    1cb6:	04 c0       	rjmp	.+8      	; 0x1cc0 <touch_read+0x1ac>
    1cb8:	20 e0       	ldi	r18, 0x00	; 0
    1cba:	30 e0       	ldi	r19, 0x00	; 0
    1cbc:	40 e0       	ldi	r20, 0x00	; 0
    1cbe:	50 e0       	ldi	r21, 0x00	; 0
    1cc0:	80 e4       	ldi	r24, 0x40	; 64
    1cc2:	91 e0       	ldi	r25, 0x01	; 1
    1cc4:	82 1b       	sub	r24, r18
    1cc6:	93 0b       	sbc	r25, r19
    1cc8:	f1 01       	movw	r30, r2
    1cca:	91 83       	std	Z+1, r25	; 0x01
    1ccc:	80 83       	st	Z, r24
    1cce:	07 c0       	rjmp	.+14     	; 0x1cde <touch_read+0x1ca>
    1cd0:	8f ef       	ldi	r24, 0xFF	; 255
    1cd2:	9f ef       	ldi	r25, 0xFF	; 255
    1cd4:	d1 01       	movw	r26, r2
    1cd6:	8d 93       	st	X+, r24
    1cd8:	9c 93       	st	X, r25
    1cda:	99 83       	std	Y+1, r25	; 0x01
    1cdc:	88 83       	st	Y, r24
    1cde:	df 91       	pop	r29
    1ce0:	cf 91       	pop	r28
    1ce2:	1f 91       	pop	r17
    1ce4:	0f 91       	pop	r16
    1ce6:	ff 90       	pop	r15
    1ce8:	ef 90       	pop	r14
    1cea:	df 90       	pop	r13
    1cec:	cf 90       	pop	r12
    1cee:	bf 90       	pop	r11
    1cf0:	af 90       	pop	r10
    1cf2:	9f 90       	pop	r9
    1cf4:	8f 90       	pop	r8
    1cf6:	7f 90       	pop	r7
    1cf8:	6f 90       	pop	r6
    1cfa:	5f 90       	pop	r5
    1cfc:	4f 90       	pop	r4
    1cfe:	3f 90       	pop	r3
    1d00:	2f 90       	pop	r2
    1d02:	08 95       	ret

00001d04 <touch_available>:
    1d04:	86 b3       	in	r24, 0x16	; 22
    1d06:	82 95       	swap	r24
    1d08:	8f 70       	andi	r24, 0x0F	; 15
    1d0a:	80 95       	com	r24
    1d0c:	81 70       	andi	r24, 0x01	; 1
    1d0e:	08 95       	ret

00001d10 <uart_putchar>:
    1d10:	1f 93       	push	r17
    1d12:	18 2f       	mov	r17, r24
    1d14:	8a 30       	cpi	r24, 0x0A	; 10
    1d16:	19 f4       	brne	.+6      	; 0x1d1e <uart_putchar+0xe>
    1d18:	8d e0       	ldi	r24, 0x0D	; 13
    1d1a:	0e 94 88 0e 	call	0x1d10	; 0x1d10 <uart_putchar>
    1d1e:	81 2f       	mov	r24, r17
    1d20:	90 e0       	ldi	r25, 0x00	; 0
    1d22:	1f 91       	pop	r17
    1d24:	08 95       	ret

00001d26 <uart_getchar>:
    1d26:	80 e0       	ldi	r24, 0x00	; 0
    1d28:	90 e0       	ldi	r25, 0x00	; 0
    1d2a:	08 95       	ret

00001d2c <uart_init>:
    1d2c:	88 e8       	ldi	r24, 0x88	; 136
    1d2e:	9e e0       	ldi	r25, 0x0E	; 14
    1d30:	63 e9       	ldi	r22, 0x93	; 147
    1d32:	7e e0       	ldi	r23, 0x0E	; 14
    1d34:	0e 94 01 0f 	call	0x1e02	; 0x1e02 <fdevopen>
    1d38:	90 93 67 00 	sts	0x0067, r25
    1d3c:	80 93 66 00 	sts	0x0066, r24
    1d40:	90 93 69 00 	sts	0x0069, r25
    1d44:	80 93 68 00 	sts	0x0068, r24
    1d48:	08 95       	ret

00001d4a <__mulsi3>:
    1d4a:	62 9f       	mul	r22, r18
    1d4c:	d0 01       	movw	r26, r0
    1d4e:	73 9f       	mul	r23, r19
    1d50:	f0 01       	movw	r30, r0
    1d52:	82 9f       	mul	r24, r18
    1d54:	e0 0d       	add	r30, r0
    1d56:	f1 1d       	adc	r31, r1
    1d58:	64 9f       	mul	r22, r20
    1d5a:	e0 0d       	add	r30, r0
    1d5c:	f1 1d       	adc	r31, r1
    1d5e:	92 9f       	mul	r25, r18
    1d60:	f0 0d       	add	r31, r0
    1d62:	83 9f       	mul	r24, r19
    1d64:	f0 0d       	add	r31, r0
    1d66:	74 9f       	mul	r23, r20
    1d68:	f0 0d       	add	r31, r0
    1d6a:	65 9f       	mul	r22, r21
    1d6c:	f0 0d       	add	r31, r0
    1d6e:	99 27       	eor	r25, r25
    1d70:	72 9f       	mul	r23, r18
    1d72:	b0 0d       	add	r27, r0
    1d74:	e1 1d       	adc	r30, r1
    1d76:	f9 1f       	adc	r31, r25
    1d78:	63 9f       	mul	r22, r19
    1d7a:	b0 0d       	add	r27, r0
    1d7c:	e1 1d       	adc	r30, r1
    1d7e:	f9 1f       	adc	r31, r25
    1d80:	bd 01       	movw	r22, r26
    1d82:	cf 01       	movw	r24, r30
    1d84:	11 24       	eor	r1, r1
    1d86:	08 95       	ret

00001d88 <__divmodsi4>:
    1d88:	97 fb       	bst	r25, 7
    1d8a:	09 2e       	mov	r0, r25
    1d8c:	05 26       	eor	r0, r21
    1d8e:	0e d0       	rcall	.+28     	; 0x1dac <__divmodsi4_neg1>
    1d90:	57 fd       	sbrc	r21, 7
    1d92:	04 d0       	rcall	.+8      	; 0x1d9c <__divmodsi4_neg2>
    1d94:	14 d0       	rcall	.+40     	; 0x1dbe <__udivmodsi4>
    1d96:	0a d0       	rcall	.+20     	; 0x1dac <__divmodsi4_neg1>
    1d98:	00 1c       	adc	r0, r0
    1d9a:	38 f4       	brcc	.+14     	; 0x1daa <__divmodsi4_exit>

00001d9c <__divmodsi4_neg2>:
    1d9c:	50 95       	com	r21
    1d9e:	40 95       	com	r20
    1da0:	30 95       	com	r19
    1da2:	21 95       	neg	r18
    1da4:	3f 4f       	sbci	r19, 0xFF	; 255
    1da6:	4f 4f       	sbci	r20, 0xFF	; 255
    1da8:	5f 4f       	sbci	r21, 0xFF	; 255

00001daa <__divmodsi4_exit>:
    1daa:	08 95       	ret

00001dac <__divmodsi4_neg1>:
    1dac:	f6 f7       	brtc	.-4      	; 0x1daa <__divmodsi4_exit>
    1dae:	90 95       	com	r25
    1db0:	80 95       	com	r24
    1db2:	70 95       	com	r23
    1db4:	61 95       	neg	r22
    1db6:	7f 4f       	sbci	r23, 0xFF	; 255
    1db8:	8f 4f       	sbci	r24, 0xFF	; 255
    1dba:	9f 4f       	sbci	r25, 0xFF	; 255
    1dbc:	08 95       	ret

00001dbe <__udivmodsi4>:
    1dbe:	a1 e2       	ldi	r26, 0x21	; 33
    1dc0:	1a 2e       	mov	r1, r26
    1dc2:	aa 1b       	sub	r26, r26
    1dc4:	bb 1b       	sub	r27, r27
    1dc6:	fd 01       	movw	r30, r26
    1dc8:	0d c0       	rjmp	.+26     	; 0x1de4 <__udivmodsi4_ep>

00001dca <__udivmodsi4_loop>:
    1dca:	aa 1f       	adc	r26, r26
    1dcc:	bb 1f       	adc	r27, r27
    1dce:	ee 1f       	adc	r30, r30
    1dd0:	ff 1f       	adc	r31, r31
    1dd2:	a2 17       	cp	r26, r18
    1dd4:	b3 07       	cpc	r27, r19
    1dd6:	e4 07       	cpc	r30, r20
    1dd8:	f5 07       	cpc	r31, r21
    1dda:	20 f0       	brcs	.+8      	; 0x1de4 <__udivmodsi4_ep>
    1ddc:	a2 1b       	sub	r26, r18
    1dde:	b3 0b       	sbc	r27, r19
    1de0:	e4 0b       	sbc	r30, r20
    1de2:	f5 0b       	sbc	r31, r21

00001de4 <__udivmodsi4_ep>:
    1de4:	66 1f       	adc	r22, r22
    1de6:	77 1f       	adc	r23, r23
    1de8:	88 1f       	adc	r24, r24
    1dea:	99 1f       	adc	r25, r25
    1dec:	1a 94       	dec	r1
    1dee:	69 f7       	brne	.-38     	; 0x1dca <__udivmodsi4_loop>
    1df0:	60 95       	com	r22
    1df2:	70 95       	com	r23
    1df4:	80 95       	com	r24
    1df6:	90 95       	com	r25
    1df8:	9b 01       	movw	r18, r22
    1dfa:	ac 01       	movw	r20, r24
    1dfc:	bd 01       	movw	r22, r26
    1dfe:	cf 01       	movw	r24, r30
    1e00:	08 95       	ret

00001e02 <fdevopen>:
    1e02:	0f 93       	push	r16
    1e04:	1f 93       	push	r17
    1e06:	cf 93       	push	r28
    1e08:	df 93       	push	r29
    1e0a:	8c 01       	movw	r16, r24
    1e0c:	eb 01       	movw	r28, r22
    1e0e:	00 97       	sbiw	r24, 0x00	; 0
    1e10:	31 f4       	brne	.+12     	; 0x1e1e <fdevopen+0x1c>
    1e12:	61 15       	cp	r22, r1
    1e14:	71 05       	cpc	r23, r1
    1e16:	19 f4       	brne	.+6      	; 0x1e1e <fdevopen+0x1c>
    1e18:	20 e0       	ldi	r18, 0x00	; 0
    1e1a:	30 e0       	ldi	r19, 0x00	; 0
    1e1c:	38 c0       	rjmp	.+112    	; 0x1e8e <fdevopen+0x8c>
    1e1e:	81 e0       	ldi	r24, 0x01	; 1
    1e20:	90 e0       	ldi	r25, 0x00	; 0
    1e22:	6e e0       	ldi	r22, 0x0E	; 14
    1e24:	70 e0       	ldi	r23, 0x00	; 0
    1e26:	0e 94 4d 0f 	call	0x1e9a	; 0x1e9a <calloc>
    1e2a:	fc 01       	movw	r30, r24
    1e2c:	9c 01       	movw	r18, r24
    1e2e:	00 97       	sbiw	r24, 0x00	; 0
    1e30:	71 f1       	breq	.+92     	; 0x1e8e <fdevopen+0x8c>
    1e32:	80 e8       	ldi	r24, 0x80	; 128
    1e34:	83 83       	std	Z+3, r24	; 0x03
    1e36:	20 97       	sbiw	r28, 0x00	; 0
    1e38:	71 f0       	breq	.+28     	; 0x1e56 <fdevopen+0x54>
    1e3a:	d3 87       	std	Z+11, r29	; 0x0b
    1e3c:	c2 87       	std	Z+10, r28	; 0x0a
    1e3e:	81 e8       	ldi	r24, 0x81	; 129
    1e40:	83 83       	std	Z+3, r24	; 0x03
    1e42:	80 91 66 00 	lds	r24, 0x0066
    1e46:	90 91 67 00 	lds	r25, 0x0067
    1e4a:	89 2b       	or	r24, r25
    1e4c:	21 f4       	brne	.+8      	; 0x1e56 <fdevopen+0x54>
    1e4e:	f0 93 67 00 	sts	0x0067, r31
    1e52:	e0 93 66 00 	sts	0x0066, r30
    1e56:	01 15       	cp	r16, r1
    1e58:	11 05       	cpc	r17, r1
    1e5a:	c9 f0       	breq	.+50     	; 0x1e8e <fdevopen+0x8c>
    1e5c:	11 87       	std	Z+9, r17	; 0x09
    1e5e:	00 87       	std	Z+8, r16	; 0x08
    1e60:	83 81       	ldd	r24, Z+3	; 0x03
    1e62:	82 60       	ori	r24, 0x02	; 2
    1e64:	83 83       	std	Z+3, r24	; 0x03
    1e66:	80 91 68 00 	lds	r24, 0x0068
    1e6a:	90 91 69 00 	lds	r25, 0x0069
    1e6e:	89 2b       	or	r24, r25
    1e70:	71 f4       	brne	.+28     	; 0x1e8e <fdevopen+0x8c>
    1e72:	f0 93 69 00 	sts	0x0069, r31
    1e76:	e0 93 68 00 	sts	0x0068, r30
    1e7a:	80 91 6a 00 	lds	r24, 0x006A
    1e7e:	90 91 6b 00 	lds	r25, 0x006B
    1e82:	89 2b       	or	r24, r25
    1e84:	21 f4       	brne	.+8      	; 0x1e8e <fdevopen+0x8c>
    1e86:	f0 93 6b 00 	sts	0x006B, r31
    1e8a:	e0 93 6a 00 	sts	0x006A, r30
    1e8e:	c9 01       	movw	r24, r18
    1e90:	df 91       	pop	r29
    1e92:	cf 91       	pop	r28
    1e94:	1f 91       	pop	r17
    1e96:	0f 91       	pop	r16
    1e98:	08 95       	ret

00001e9a <calloc>:
    1e9a:	0f 93       	push	r16
    1e9c:	1f 93       	push	r17
    1e9e:	cf 93       	push	r28
    1ea0:	df 93       	push	r29
    1ea2:	68 9f       	mul	r22, r24
    1ea4:	80 01       	movw	r16, r0
    1ea6:	69 9f       	mul	r22, r25
    1ea8:	10 0d       	add	r17, r0
    1eaa:	78 9f       	mul	r23, r24
    1eac:	10 0d       	add	r17, r0
    1eae:	11 24       	eor	r1, r1
    1eb0:	c8 01       	movw	r24, r16
    1eb2:	0e 94 69 0f 	call	0x1ed2	; 0x1ed2 <malloc>
    1eb6:	ec 01       	movw	r28, r24
    1eb8:	00 97       	sbiw	r24, 0x00	; 0
    1eba:	29 f0       	breq	.+10     	; 0x1ec6 <calloc+0x2c>
    1ebc:	60 e0       	ldi	r22, 0x00	; 0
    1ebe:	70 e0       	ldi	r23, 0x00	; 0
    1ec0:	a8 01       	movw	r20, r16
    1ec2:	0e 94 6e 10 	call	0x20dc	; 0x20dc <memset>
    1ec6:	ce 01       	movw	r24, r28
    1ec8:	df 91       	pop	r29
    1eca:	cf 91       	pop	r28
    1ecc:	1f 91       	pop	r17
    1ece:	0f 91       	pop	r16
    1ed0:	08 95       	ret

00001ed2 <malloc>:
    1ed2:	cf 93       	push	r28
    1ed4:	df 93       	push	r29
    1ed6:	bc 01       	movw	r22, r24
    1ed8:	82 30       	cpi	r24, 0x02	; 2
    1eda:	91 05       	cpc	r25, r1
    1edc:	10 f4       	brcc	.+4      	; 0x1ee2 <malloc+0x10>
    1ede:	62 e0       	ldi	r22, 0x02	; 2
    1ee0:	70 e0       	ldi	r23, 0x00	; 0
    1ee2:	a0 91 6e 00 	lds	r26, 0x006E
    1ee6:	b0 91 6f 00 	lds	r27, 0x006F
    1eea:	ed 01       	movw	r28, r26
    1eec:	e0 e0       	ldi	r30, 0x00	; 0
    1eee:	f0 e0       	ldi	r31, 0x00	; 0
    1ef0:	40 e0       	ldi	r20, 0x00	; 0
    1ef2:	50 e0       	ldi	r21, 0x00	; 0
    1ef4:	21 c0       	rjmp	.+66     	; 0x1f38 <malloc+0x66>
    1ef6:	88 81       	ld	r24, Y
    1ef8:	99 81       	ldd	r25, Y+1	; 0x01
    1efa:	86 17       	cp	r24, r22
    1efc:	97 07       	cpc	r25, r23
    1efe:	69 f4       	brne	.+26     	; 0x1f1a <malloc+0x48>
    1f00:	8a 81       	ldd	r24, Y+2	; 0x02
    1f02:	9b 81       	ldd	r25, Y+3	; 0x03
    1f04:	30 97       	sbiw	r30, 0x00	; 0
    1f06:	19 f0       	breq	.+6      	; 0x1f0e <malloc+0x3c>
    1f08:	93 83       	std	Z+3, r25	; 0x03
    1f0a:	82 83       	std	Z+2, r24	; 0x02
    1f0c:	04 c0       	rjmp	.+8      	; 0x1f16 <malloc+0x44>
    1f0e:	90 93 6f 00 	sts	0x006F, r25
    1f12:	80 93 6e 00 	sts	0x006E, r24
    1f16:	fe 01       	movw	r30, r28
    1f18:	34 c0       	rjmp	.+104    	; 0x1f82 <malloc+0xb0>
    1f1a:	68 17       	cp	r22, r24
    1f1c:	79 07       	cpc	r23, r25
    1f1e:	38 f4       	brcc	.+14     	; 0x1f2e <malloc+0x5c>
    1f20:	41 15       	cp	r20, r1
    1f22:	51 05       	cpc	r21, r1
    1f24:	19 f0       	breq	.+6      	; 0x1f2c <malloc+0x5a>
    1f26:	84 17       	cp	r24, r20
    1f28:	95 07       	cpc	r25, r21
    1f2a:	08 f4       	brcc	.+2      	; 0x1f2e <malloc+0x5c>
    1f2c:	ac 01       	movw	r20, r24
    1f2e:	fe 01       	movw	r30, r28
    1f30:	8a 81       	ldd	r24, Y+2	; 0x02
    1f32:	9b 81       	ldd	r25, Y+3	; 0x03
    1f34:	9c 01       	movw	r18, r24
    1f36:	e9 01       	movw	r28, r18
    1f38:	20 97       	sbiw	r28, 0x00	; 0
    1f3a:	e9 f6       	brne	.-70     	; 0x1ef6 <malloc+0x24>
    1f3c:	41 15       	cp	r20, r1
    1f3e:	51 05       	cpc	r21, r1
    1f40:	a9 f1       	breq	.+106    	; 0x1fac <malloc+0xda>
    1f42:	ca 01       	movw	r24, r20
    1f44:	86 1b       	sub	r24, r22
    1f46:	97 0b       	sbc	r25, r23
    1f48:	04 97       	sbiw	r24, 0x04	; 4
    1f4a:	08 f4       	brcc	.+2      	; 0x1f4e <malloc+0x7c>
    1f4c:	ba 01       	movw	r22, r20
    1f4e:	e0 e0       	ldi	r30, 0x00	; 0
    1f50:	f0 e0       	ldi	r31, 0x00	; 0
    1f52:	2a c0       	rjmp	.+84     	; 0x1fa8 <malloc+0xd6>
    1f54:	8d 91       	ld	r24, X+
    1f56:	9c 91       	ld	r25, X
    1f58:	11 97       	sbiw	r26, 0x01	; 1
    1f5a:	84 17       	cp	r24, r20
    1f5c:	95 07       	cpc	r25, r21
    1f5e:	f9 f4       	brne	.+62     	; 0x1f9e <malloc+0xcc>
    1f60:	64 17       	cp	r22, r20
    1f62:	75 07       	cpc	r23, r21
    1f64:	81 f4       	brne	.+32     	; 0x1f86 <malloc+0xb4>
    1f66:	12 96       	adiw	r26, 0x02	; 2
    1f68:	8d 91       	ld	r24, X+
    1f6a:	9c 91       	ld	r25, X
    1f6c:	13 97       	sbiw	r26, 0x03	; 3
    1f6e:	30 97       	sbiw	r30, 0x00	; 0
    1f70:	19 f0       	breq	.+6      	; 0x1f78 <malloc+0xa6>
    1f72:	93 83       	std	Z+3, r25	; 0x03
    1f74:	82 83       	std	Z+2, r24	; 0x02
    1f76:	04 c0       	rjmp	.+8      	; 0x1f80 <malloc+0xae>
    1f78:	90 93 6f 00 	sts	0x006F, r25
    1f7c:	80 93 6e 00 	sts	0x006E, r24
    1f80:	fd 01       	movw	r30, r26
    1f82:	32 96       	adiw	r30, 0x02	; 2
    1f84:	4f c0       	rjmp	.+158    	; 0x2024 <malloc+0x152>
    1f86:	ca 01       	movw	r24, r20
    1f88:	86 1b       	sub	r24, r22
    1f8a:	97 0b       	sbc	r25, r23
    1f8c:	fd 01       	movw	r30, r26
    1f8e:	e8 0f       	add	r30, r24
    1f90:	f9 1f       	adc	r31, r25
    1f92:	61 93       	st	Z+, r22
    1f94:	71 93       	st	Z+, r23
    1f96:	02 97       	sbiw	r24, 0x02	; 2
    1f98:	8d 93       	st	X+, r24
    1f9a:	9c 93       	st	X, r25
    1f9c:	43 c0       	rjmp	.+134    	; 0x2024 <malloc+0x152>
    1f9e:	fd 01       	movw	r30, r26
    1fa0:	82 81       	ldd	r24, Z+2	; 0x02
    1fa2:	93 81       	ldd	r25, Z+3	; 0x03
    1fa4:	9c 01       	movw	r18, r24
    1fa6:	d9 01       	movw	r26, r18
    1fa8:	10 97       	sbiw	r26, 0x00	; 0
    1faa:	a1 f6       	brne	.-88     	; 0x1f54 <malloc+0x82>
    1fac:	80 91 6c 00 	lds	r24, 0x006C
    1fb0:	90 91 6d 00 	lds	r25, 0x006D
    1fb4:	89 2b       	or	r24, r25
    1fb6:	41 f4       	brne	.+16     	; 0x1fc8 <malloc+0xf6>
    1fb8:	80 91 62 00 	lds	r24, 0x0062
    1fbc:	90 91 63 00 	lds	r25, 0x0063
    1fc0:	90 93 6d 00 	sts	0x006D, r25
    1fc4:	80 93 6c 00 	sts	0x006C, r24
    1fc8:	40 91 64 00 	lds	r20, 0x0064
    1fcc:	50 91 65 00 	lds	r21, 0x0065
    1fd0:	41 15       	cp	r20, r1
    1fd2:	51 05       	cpc	r21, r1
    1fd4:	41 f4       	brne	.+16     	; 0x1fe6 <malloc+0x114>
    1fd6:	4d b7       	in	r20, 0x3d	; 61
    1fd8:	5e b7       	in	r21, 0x3e	; 62
    1fda:	80 91 60 00 	lds	r24, 0x0060
    1fde:	90 91 61 00 	lds	r25, 0x0061
    1fe2:	48 1b       	sub	r20, r24
    1fe4:	59 0b       	sbc	r21, r25
    1fe6:	20 91 6c 00 	lds	r18, 0x006C
    1fea:	30 91 6d 00 	lds	r19, 0x006D
    1fee:	24 17       	cp	r18, r20
    1ff0:	35 07       	cpc	r19, r21
    1ff2:	b0 f4       	brcc	.+44     	; 0x2020 <malloc+0x14e>
    1ff4:	ca 01       	movw	r24, r20
    1ff6:	82 1b       	sub	r24, r18
    1ff8:	93 0b       	sbc	r25, r19
    1ffa:	86 17       	cp	r24, r22
    1ffc:	97 07       	cpc	r25, r23
    1ffe:	80 f0       	brcs	.+32     	; 0x2020 <malloc+0x14e>
    2000:	ab 01       	movw	r20, r22
    2002:	4e 5f       	subi	r20, 0xFE	; 254
    2004:	5f 4f       	sbci	r21, 0xFF	; 255
    2006:	84 17       	cp	r24, r20
    2008:	95 07       	cpc	r25, r21
    200a:	50 f0       	brcs	.+20     	; 0x2020 <malloc+0x14e>
    200c:	42 0f       	add	r20, r18
    200e:	53 1f       	adc	r21, r19
    2010:	50 93 6d 00 	sts	0x006D, r21
    2014:	40 93 6c 00 	sts	0x006C, r20
    2018:	f9 01       	movw	r30, r18
    201a:	61 93       	st	Z+, r22
    201c:	71 93       	st	Z+, r23
    201e:	02 c0       	rjmp	.+4      	; 0x2024 <malloc+0x152>
    2020:	e0 e0       	ldi	r30, 0x00	; 0
    2022:	f0 e0       	ldi	r31, 0x00	; 0
    2024:	cf 01       	movw	r24, r30
    2026:	df 91       	pop	r29
    2028:	cf 91       	pop	r28
    202a:	08 95       	ret

0000202c <free>:
    202c:	cf 93       	push	r28
    202e:	df 93       	push	r29
    2030:	00 97       	sbiw	r24, 0x00	; 0
    2032:	09 f4       	brne	.+2      	; 0x2036 <free+0xa>
    2034:	50 c0       	rjmp	.+160    	; 0x20d6 <free+0xaa>
    2036:	ec 01       	movw	r28, r24
    2038:	22 97       	sbiw	r28, 0x02	; 2
    203a:	1b 82       	std	Y+3, r1	; 0x03
    203c:	1a 82       	std	Y+2, r1	; 0x02
    203e:	a0 91 6e 00 	lds	r26, 0x006E
    2042:	b0 91 6f 00 	lds	r27, 0x006F
    2046:	10 97       	sbiw	r26, 0x00	; 0
    2048:	09 f1       	breq	.+66     	; 0x208c <free+0x60>
    204a:	40 e0       	ldi	r20, 0x00	; 0
    204c:	50 e0       	ldi	r21, 0x00	; 0
    204e:	ac 17       	cp	r26, r28
    2050:	bd 07       	cpc	r27, r29
    2052:	08 f1       	brcs	.+66     	; 0x2096 <free+0x6a>
    2054:	bb 83       	std	Y+3, r27	; 0x03
    2056:	aa 83       	std	Y+2, r26	; 0x02
    2058:	fe 01       	movw	r30, r28
    205a:	21 91       	ld	r18, Z+
    205c:	31 91       	ld	r19, Z+
    205e:	e2 0f       	add	r30, r18
    2060:	f3 1f       	adc	r31, r19
    2062:	ae 17       	cp	r26, r30
    2064:	bf 07       	cpc	r27, r31
    2066:	79 f4       	brne	.+30     	; 0x2086 <free+0x5a>
    2068:	8d 91       	ld	r24, X+
    206a:	9c 91       	ld	r25, X
    206c:	11 97       	sbiw	r26, 0x01	; 1
    206e:	28 0f       	add	r18, r24
    2070:	39 1f       	adc	r19, r25
    2072:	2e 5f       	subi	r18, 0xFE	; 254
    2074:	3f 4f       	sbci	r19, 0xFF	; 255
    2076:	39 83       	std	Y+1, r19	; 0x01
    2078:	28 83       	st	Y, r18
    207a:	12 96       	adiw	r26, 0x02	; 2
    207c:	8d 91       	ld	r24, X+
    207e:	9c 91       	ld	r25, X
    2080:	13 97       	sbiw	r26, 0x03	; 3
    2082:	9b 83       	std	Y+3, r25	; 0x03
    2084:	8a 83       	std	Y+2, r24	; 0x02
    2086:	41 15       	cp	r20, r1
    2088:	51 05       	cpc	r21, r1
    208a:	71 f4       	brne	.+28     	; 0x20a8 <free+0x7c>
    208c:	d0 93 6f 00 	sts	0x006F, r29
    2090:	c0 93 6e 00 	sts	0x006E, r28
    2094:	20 c0       	rjmp	.+64     	; 0x20d6 <free+0xaa>
    2096:	12 96       	adiw	r26, 0x02	; 2
    2098:	8d 91       	ld	r24, X+
    209a:	9c 91       	ld	r25, X
    209c:	13 97       	sbiw	r26, 0x03	; 3
    209e:	ad 01       	movw	r20, r26
    20a0:	00 97       	sbiw	r24, 0x00	; 0
    20a2:	11 f0       	breq	.+4      	; 0x20a8 <free+0x7c>
    20a4:	dc 01       	movw	r26, r24
    20a6:	d3 cf       	rjmp	.-90     	; 0x204e <free+0x22>
    20a8:	fa 01       	movw	r30, r20
    20aa:	d3 83       	std	Z+3, r29	; 0x03
    20ac:	c2 83       	std	Z+2, r28	; 0x02
    20ae:	21 91       	ld	r18, Z+
    20b0:	31 91       	ld	r19, Z+
    20b2:	e2 0f       	add	r30, r18
    20b4:	f3 1f       	adc	r31, r19
    20b6:	ce 17       	cp	r28, r30
    20b8:	df 07       	cpc	r29, r31
    20ba:	69 f4       	brne	.+26     	; 0x20d6 <free+0xaa>
    20bc:	88 81       	ld	r24, Y
    20be:	99 81       	ldd	r25, Y+1	; 0x01
    20c0:	28 0f       	add	r18, r24
    20c2:	39 1f       	adc	r19, r25
    20c4:	2e 5f       	subi	r18, 0xFE	; 254
    20c6:	3f 4f       	sbci	r19, 0xFF	; 255
    20c8:	fa 01       	movw	r30, r20
    20ca:	31 83       	std	Z+1, r19	; 0x01
    20cc:	20 83       	st	Z, r18
    20ce:	8a 81       	ldd	r24, Y+2	; 0x02
    20d0:	9b 81       	ldd	r25, Y+3	; 0x03
    20d2:	93 83       	std	Z+3, r25	; 0x03
    20d4:	82 83       	std	Z+2, r24	; 0x02
    20d6:	df 91       	pop	r29
    20d8:	cf 91       	pop	r28
    20da:	08 95       	ret

000020dc <memset>:
    20dc:	dc 01       	movw	r26, r24
    20de:	01 c0       	rjmp	.+2      	; 0x20e2 <memset+0x6>
    20e0:	6d 93       	st	X+, r22
    20e2:	41 50       	subi	r20, 0x01	; 1
    20e4:	50 40       	sbci	r21, 0x00	; 0
    20e6:	e0 f7       	brcc	.-8      	; 0x20e0 <memset+0x4>
    20e8:	08 95       	ret

000020ea <_exit>:
    20ea:	f8 94       	cli

000020ec <__stop_program>:
    20ec:	ff cf       	rjmp	.-2      	; 0x20ec <__stop_program>
